ARM GAS  C:\Users\Evan\AppData\Local\Temp\ccsPcayk.s 			page 1


   1              		.cpu cortex-m0
   2              		.fpu softvfp
   3              		.eabi_attribute 20, 1
   4              		.eabi_attribute 21, 1
   5              		.eabi_attribute 23, 3
   6              		.eabi_attribute 24, 1
   7              		.eabi_attribute 25, 1
   8              		.eabi_attribute 26, 1
   9              		.eabi_attribute 30, 6
  10              		.eabi_attribute 34, 0
  11              		.eabi_attribute 18, 4
  12              		.code	16
  13              		.file	"BLE.c"
  14              		.text
  15              	.Ltext0:
  16              		.cfi_sections	.debug_frame
  17              		.global	cyBle_initVar
  18              		.bss
  19              		.type	cyBle_initVar, %object
  20              		.size	cyBle_initVar, 1
  21              	cyBle_initVar:
  22 0000 00       		.space	1
  23              		.global	cyBle_discoveryParam
  24              		.data
  25              		.align	2
  26              		.type	cyBle_discoveryParam, %object
  27              		.size	cyBle_discoveryParam, 16
  28              	cyBle_discoveryParam:
  29 0000 2000     		.short	32
  30 0002 3000     		.short	48
  31 0004 00       		.byte	0
  32 0005 00       		.byte	0
  33 0006 00       		.byte	0
  34 0007 00       		.byte	0
  35 0008 00       		.byte	0
  36 0009 00       		.byte	0
  37 000a 50       		.byte	80
  38 000b A0       		.byte	-96
  39 000c 00       		.byte	0
  40 000d 07       		.byte	7
  41 000e 00       		.byte	0
  42 000f 00       		.space	1
  43              		.global	cyBle_discoveryData
  44              		.align	2
  45              		.type	cyBle_discoveryData, %object
  46              		.size	cyBle_discoveryData, 32
  47              	cyBle_discoveryData:
  48 0010 02       		.byte	2
  49 0011 01       		.byte	1
  50 0012 06       		.byte	6
  51 0013 05       		.byte	5
  52 0014 08       		.byte	8
  53 0015 41       		.byte	65
  54 0016 4E       		.byte	78
  55 0017 43       		.byte	67
  56 0018 53       		.byte	83
  57 0019 11       		.byte	17
ARM GAS  C:\Users\Evan\AppData\Local\Temp\ccsPcayk.s 			page 2


  58 001a 15       		.byte	21
  59 001b D0       		.byte	-48
  60 001c 00       		.byte	0
  61 001d 2D       		.byte	45
  62 001e 12       		.byte	18
  63 001f 1E       		.byte	30
  64 0020 4B       		.byte	75
  65 0021 0F       		.byte	15
  66 0022 A4       		.byte	-92
  67 0023 99       		.byte	-103
  68 0024 4E       		.byte	78
  69 0025 CE       		.byte	-50
  70 0026 B5       		.byte	-75
  71 0027 31       		.byte	49
  72 0028 F4       		.byte	-12
  73 0029 05       		.byte	5
  74 002a 79       		.byte	121
  75 002b 00       		.byte	0
  76 002c 00       		.byte	0
  77 002d 00       		.byte	0
  78 002e 00       		.byte	0
  79 002f 1B       		.byte	27
  80              		.global	cyBle_scanRspData
  81              		.align	2
  82              		.type	cyBle_scanRspData, %object
  83              		.size	cyBle_scanRspData, 32
  84              	cyBle_scanRspData:
  85 0030 1B       		.byte	27
  86 0031 09       		.byte	9
  87 0032 41       		.byte	65
  88 0033 4E       		.byte	78
  89 0034 43       		.byte	67
  90 0035 53       		.byte	83
  91 0036 20       		.byte	32
  92 0037 4E       		.byte	78
  93 0038 6F       		.byte	111
  94 0039 74       		.byte	116
  95 003a 69       		.byte	105
  96 003b 66       		.byte	102
  97 003c 69       		.byte	105
  98 003d 63       		.byte	99
  99 003e 61       		.byte	97
 100 003f 74       		.byte	116
 101 0040 69       		.byte	105
 102 0041 6F       		.byte	111
 103 0042 6E       		.byte	110
 104 0043 20       		.byte	32
 105 0044 43       		.byte	67
 106 0045 6F       		.byte	111
 107 0046 6E       		.byte	110
 108 0047 73       		.byte	115
 109 0048 75       		.byte	117
 110 0049 6D       		.byte	109
 111 004a 65       		.byte	101
 112 004b 72       		.byte	114
 113 004c 00       		.byte	0
 114 004d 00       		.byte	0
ARM GAS  C:\Users\Evan\AppData\Local\Temp\ccsPcayk.s 			page 3


 115 004e 00       		.byte	0
 116 004f 1C       		.byte	28
 117              		.global	cyBle_discoveryModeInfo
 118              		.align	2
 119              		.type	cyBle_discoveryModeInfo, %object
 120              		.size	cyBle_discoveryModeInfo, 20
 121              	cyBle_discoveryModeInfo:
 122 0050 02       		.byte	2
 123 0051 000000   		.space	3
 124 0054 00000000 		.word	cyBle_discoveryParam
 125 0058 00000000 		.word	cyBle_discoveryData
 126 005c 00000000 		.word	cyBle_scanRspData
 127 0060 3C00     		.short	60
 128 0062 0000     		.space	2
 129              		.comm	cyBle_pendingFlashWrite,1,1
 130              		.comm	CyBle_ApplCallback,4,4
 131              		.global	cyBle_deviceAddress
 132              		.align	2
 133              		.type	cyBle_deviceAddress, %object
 134              		.size	cyBle_deviceAddress, 7
 135              	cyBle_deviceAddress:
 136 0064 00       		.byte	0
 137 0065 00       		.byte	0
 138 0066 00       		.byte	0
 139 0067 50       		.byte	80
 140 0068 A0       		.byte	-96
 141 0069 00       		.byte	0
 142 006a 00       		.byte	0
 143              		.global	cyBle_sflashDeviceAddress
 144 006b 00       		.align	2
 145              		.type	cyBle_sflashDeviceAddress, %object
 146              		.size	cyBle_sflashDeviceAddress, 4
 147              	cyBle_sflashDeviceAddress:
 148 006c 00F2FF0F 		.word	268431872
 149              		.section	.text.CyBle_Init,"ax",%progbits
 150              		.align	2
 151              		.global	CyBle_Init
 152              		.code	16
 153              		.thumb_func
 154              		.type	CyBle_Init, %function
 155              	CyBle_Init:
 156              	.LFB2:
 157              		.file 1 ".\\Generated_Source\\PSoC4\\BLE.c"
   1:.\Generated_Source\PSoC4/BLE.c **** /*******************************************************************************
   2:.\Generated_Source\PSoC4/BLE.c **** File Name: CYBLE.c
   3:.\Generated_Source\PSoC4/BLE.c **** Version 1.20
   4:.\Generated_Source\PSoC4/BLE.c **** 
   5:.\Generated_Source\PSoC4/BLE.c **** Description:
   6:.\Generated_Source\PSoC4/BLE.c ****  This file contains the source code for the Common APIs of the BLE Component.
   7:.\Generated_Source\PSoC4/BLE.c **** 
   8:.\Generated_Source\PSoC4/BLE.c **** ********************************************************************************
   9:.\Generated_Source\PSoC4/BLE.c **** Copyright 2014-2015, Cypress Semiconductor Corporation.  All rights reserved.
  10:.\Generated_Source\PSoC4/BLE.c **** You may use this file only in accordance with the license, terms, conditions,
  11:.\Generated_Source\PSoC4/BLE.c **** disclaimers, and limitations in the end user license agreement accompanying
  12:.\Generated_Source\PSoC4/BLE.c **** the software package with which this file was provided.
  13:.\Generated_Source\PSoC4/BLE.c **** *******************************************************************************/
  14:.\Generated_Source\PSoC4/BLE.c **** 
ARM GAS  C:\Users\Evan\AppData\Local\Temp\ccsPcayk.s 			page 4


  15:.\Generated_Source\PSoC4/BLE.c **** #include "BLE_eventHandler.h"
  16:.\Generated_Source\PSoC4/BLE.c **** #include "BLE_HAL_PVT.h"
  17:.\Generated_Source\PSoC4/BLE.c **** 
  18:.\Generated_Source\PSoC4/BLE.c **** 
  19:.\Generated_Source\PSoC4/BLE.c **** /***************************************
  20:.\Generated_Source\PSoC4/BLE.c **** ##Function Prototypes
  21:.\Generated_Source\PSoC4/BLE.c **** ***************************************/
  22:.\Generated_Source\PSoC4/BLE.c **** 
  23:.\Generated_Source\PSoC4/BLE.c **** #if(CYBLE_GATT_ROLE_SERVER)
  24:.\Generated_Source\PSoC4/BLE.c ****     #if(CYBLE_GAP_ROLE_PERIPHERAL)
  25:.\Generated_Source\PSoC4/BLE.c ****         static void CyBle_ChangeAdLocalName(const char8 name[], uint8 dest);
  26:.\Generated_Source\PSoC4/BLE.c ****     #endif /* (CYBLE_GAP_ROLE_PERIPHERAL) */
  27:.\Generated_Source\PSoC4/BLE.c **** #endif /* (CYBLE_GATT_ROLE_SERVER) */
  28:.\Generated_Source\PSoC4/BLE.c ****     
  29:.\Generated_Source\PSoC4/BLE.c **** 
  30:.\Generated_Source\PSoC4/BLE.c **** /***************************************
  31:.\Generated_Source\PSoC4/BLE.c **** ##Global Variables
  32:.\Generated_Source\PSoC4/BLE.c **** ***************************************/
  33:.\Generated_Source\PSoC4/BLE.c **** 
  34:.\Generated_Source\PSoC4/BLE.c **** /* Indicates whether the BLE has been initialized. The variable is initialized to
  35:.\Generated_Source\PSoC4/BLE.c ****    0 and set to 1 the first time CyBle_Start() is called. This allows the component
  36:.\Generated_Source\PSoC4/BLE.c ****    to restart without reinitialization after the first call to the CyBle_Start() 
  37:.\Generated_Source\PSoC4/BLE.c ****    routine. If reinitialization of the component is required, the variable should 
  38:.\Generated_Source\PSoC4/BLE.c ****    be set to 0 before the CyBle_Start() routine is called. Alternatively, the BLE
  39:.\Generated_Source\PSoC4/BLE.c ****    can be reinitialized by calling the CyBle_Init() function.
  40:.\Generated_Source\PSoC4/BLE.c **** */
  41:.\Generated_Source\PSoC4/BLE.c **** uint8  cyBle_initVar = 0u;
  42:.\Generated_Source\PSoC4/BLE.c **** 
  43:.\Generated_Source\PSoC4/BLE.c **** #if(CYBLE_GAP_ROLE_PERIPHERAL || CYBLE_GAP_ROLE_BROADCASTER)
  44:.\Generated_Source\PSoC4/BLE.c **** 
  45:.\Generated_Source\PSoC4/BLE.c **** CYBLE_GAPP_DISC_PARAM_T cyBle_discoveryParam =
  46:.\Generated_Source\PSoC4/BLE.c **** {
  47:.\Generated_Source\PSoC4/BLE.c ****     0x0020u,    /* uint16 advertising_interval_min */
  48:.\Generated_Source\PSoC4/BLE.c ****     0x0030u,    /* uint16 advertising_interval_max */
  49:.\Generated_Source\PSoC4/BLE.c ****     CYBLE_GAPP_CONNECTABLE_UNDIRECTED_ADV, /* uint8 advertising_type */
  50:.\Generated_Source\PSoC4/BLE.c ****     0x00u,      /* uint8 own_addr_type */
  51:.\Generated_Source\PSoC4/BLE.c ****     0x00u,      /* uint8 direct_addr_type */
  52:.\Generated_Source\PSoC4/BLE.c ****     {0x00u, 0x00u, 0x00u, 0x50u, 0xA0u, 0x00u}, /* uint8* direct_addr */
  53:.\Generated_Source\PSoC4/BLE.c ****     0x07u,      /* uint8 advertising_channel_map */
  54:.\Generated_Source\PSoC4/BLE.c ****     0x00u,      /* uint8 advertising_filter_policy */
  55:.\Generated_Source\PSoC4/BLE.c **** };
  56:.\Generated_Source\PSoC4/BLE.c **** 
  57:.\Generated_Source\PSoC4/BLE.c **** CYBLE_GAPP_DISC_DATA_T cyBle_discoveryData =
  58:.\Generated_Source\PSoC4/BLE.c **** {
  59:.\Generated_Source\PSoC4/BLE.c ****     { 0x02u, 0x01u, 0x06u, 0x05u, 0x08u, 0x41u, 0x4Eu,
  60:.\Generated_Source\PSoC4/BLE.c ****     0x43u, 0x53u, 0x11u, 0x15u, 0xD0u, 0x00u, 0x2Du, 0x12u,
  61:.\Generated_Source\PSoC4/BLE.c ****     0x1Eu, 0x4Bu, 0x0Fu, 0xA4u, 0x99u, 0x4Eu, 0xCEu, 0xB5u,
  62:.\Generated_Source\PSoC4/BLE.c ****     0x31u, 0xF4u, 0x05u, 0x79u, 0x00u, 0x00u, 0x00u, 0x00u }, /* uint8 advertising_data[CYBLE_MAX_A
  63:.\Generated_Source\PSoC4/BLE.c ****     0x1Bu,      /* uint8 adv_data_length */
  64:.\Generated_Source\PSoC4/BLE.c **** };
  65:.\Generated_Source\PSoC4/BLE.c **** 
  66:.\Generated_Source\PSoC4/BLE.c **** CYBLE_GAPP_SCAN_RSP_DATA_T cyBle_scanRspData =
  67:.\Generated_Source\PSoC4/BLE.c **** {
  68:.\Generated_Source\PSoC4/BLE.c ****     { 0x1Bu, 0x09u, 0x41u, 0x4Eu, 0x43u, 0x53u, 0x20u,
  69:.\Generated_Source\PSoC4/BLE.c ****     0x4Eu, 0x6Fu, 0x74u, 0x69u, 0x66u, 0x69u, 0x63u, 0x61u,
  70:.\Generated_Source\PSoC4/BLE.c ****     0x74u, 0x69u, 0x6Fu, 0x6Eu, 0x20u, 0x43u, 0x6Fu, 0x6Eu,
  71:.\Generated_Source\PSoC4/BLE.c ****     0x73u, 0x75u, 0x6Du, 0x65u, 0x72u, 0x00u, 0x00u, 0x00u }, /* uint8 scan_rsp_data[CYBLE_MAX_SCAN
ARM GAS  C:\Users\Evan\AppData\Local\Temp\ccsPcayk.s 			page 5


  72:.\Generated_Source\PSoC4/BLE.c ****     0x1Cu,      /* uint8 scan_rsp_data_length */
  73:.\Generated_Source\PSoC4/BLE.c **** };
  74:.\Generated_Source\PSoC4/BLE.c **** 
  75:.\Generated_Source\PSoC4/BLE.c **** /* This variable of type CYBLE_GAPP_DISC_MODE_INFO_T is present only when 
  76:.\Generated_Source\PSoC4/BLE.c ****    the BLE component is configured for Peripheral GAP role or Central and 
  77:.\Generated_Source\PSoC4/BLE.c ****    Peripheral GAP role. It contains the Advertisement settings and also the 
  78:.\Generated_Source\PSoC4/BLE.c ****    Advertisement and Scan response data parameters entered in the customizer.
  79:.\Generated_Source\PSoC4/BLE.c ****    This variable can be used by advanced users to change Advertisement settings,
  80:.\Generated_Source\PSoC4/BLE.c ****    Advertisement or Scan response data in runtime. 
  81:.\Generated_Source\PSoC4/BLE.c **** */
  82:.\Generated_Source\PSoC4/BLE.c **** CYBLE_GAPP_DISC_MODE_INFO_T cyBle_discoveryModeInfo =
  83:.\Generated_Source\PSoC4/BLE.c **** {
  84:.\Generated_Source\PSoC4/BLE.c ****     0x02u,      /* uint8 discMode */
  85:.\Generated_Source\PSoC4/BLE.c ****     &cyBle_discoveryParam,
  86:.\Generated_Source\PSoC4/BLE.c ****     &cyBle_discoveryData,
  87:.\Generated_Source\PSoC4/BLE.c ****     &cyBle_scanRspData,
  88:.\Generated_Source\PSoC4/BLE.c ****     0x003Cu,    /* uint16 advTo */
  89:.\Generated_Source\PSoC4/BLE.c **** };
  90:.\Generated_Source\PSoC4/BLE.c **** 
  91:.\Generated_Source\PSoC4/BLE.c **** 
  92:.\Generated_Source\PSoC4/BLE.c **** #endif /* CYBLE_GAP_ROLE_PERIPHERAL || CYBLE_GAP_ROLE_BROADCASTER */
  93:.\Generated_Source\PSoC4/BLE.c **** 
  94:.\Generated_Source\PSoC4/BLE.c **** #if(CYBLE_GAP_ROLE_CENTRAL)
  95:.\Generated_Source\PSoC4/BLE.c ****     
  96:.\Generated_Source\PSoC4/BLE.c **** CYBLE_GAPC_CONN_PARAM_T cyBle_connectionParameters;
  97:.\Generated_Source\PSoC4/BLE.c **** 
  98:.\Generated_Source\PSoC4/BLE.c **** /* Connecting timeout is set to 30 seconds in CyBle_Init function. 
  99:.\Generated_Source\PSoC4/BLE.c ****    Not zero value starts timer in CyBle_GapcConnectDevice API.
 100:.\Generated_Source\PSoC4/BLE.c **** */
 101:.\Generated_Source\PSoC4/BLE.c **** uint16 cyBle_connectingTimeout;
 102:.\Generated_Source\PSoC4/BLE.c ****     
 103:.\Generated_Source\PSoC4/BLE.c **** #endif /* CYBLE_GAP_ROLE_CENTRAL */
 104:.\Generated_Source\PSoC4/BLE.c **** 
 105:.\Generated_Source\PSoC4/BLE.c **** #if(CYBLE_GAP_ROLE_CENTRAL || CYBLE_GAP_ROLE_OBSERVER)
 106:.\Generated_Source\PSoC4/BLE.c ****     
 107:.\Generated_Source\PSoC4/BLE.c **** 
 108:.\Generated_Source\PSoC4/BLE.c ****     
 109:.\Generated_Source\PSoC4/BLE.c **** #endif /* CYBLE_GAP_ROLE_CENTRAL || CYBLE_GAP_ROLE_OBSERVER */
 110:.\Generated_Source\PSoC4/BLE.c **** 
 111:.\Generated_Source\PSoC4/BLE.c **** #if((CYBLE_GAP_ROLE_PERIPHERAL || CYBLE_GAP_ROLE_CENTRAL) && (CYBLE_BONDING_REQUIREMENT == CYBLE_BO
 112:.\Generated_Source\PSoC4/BLE.c **** 
 113:.\Generated_Source\PSoC4/BLE.c **** uint8 cyBle_pendingFlashWrite;
 114:.\Generated_Source\PSoC4/BLE.c ****     
 115:.\Generated_Source\PSoC4/BLE.c **** #endif  /* (CYBLE_BONDING_REQUIREMENT == CYBLE_BONDING_YES) */
 116:.\Generated_Source\PSoC4/BLE.c **** 
 117:.\Generated_Source\PSoC4/BLE.c **** CYBLE_CALLBACK_T CyBle_ApplCallback;
 118:.\Generated_Source\PSoC4/BLE.c **** CYBLE_GAP_BD_ADDR_T cyBle_deviceAddress = {{0x00u, 0x00u, 0x00u, 0x50u, 0xA0u, 0x00u}, 0x00u };
 119:.\Generated_Source\PSoC4/BLE.c **** CYBLE_GAP_BD_ADDR_T * cyBle_sflashDeviceAddress = CYBLE_SFLASH_DEVICE_ADDRESS_PTR;
 120:.\Generated_Source\PSoC4/BLE.c **** 
 121:.\Generated_Source\PSoC4/BLE.c **** 
 122:.\Generated_Source\PSoC4/BLE.c **** /******************************************************************************
 123:.\Generated_Source\PSoC4/BLE.c **** ##Function Name: CyBle_Init
 124:.\Generated_Source\PSoC4/BLE.c **** *******************************************************************************
 125:.\Generated_Source\PSoC4/BLE.c ****  Summary:
 126:.\Generated_Source\PSoC4/BLE.c ****   Initializes the component with the parameters set in the customizer.
 127:.\Generated_Source\PSoC4/BLE.c **** 
 128:.\Generated_Source\PSoC4/BLE.c ****  Parameters:
ARM GAS  C:\Users\Evan\AppData\Local\Temp\ccsPcayk.s 			page 6


 129:.\Generated_Source\PSoC4/BLE.c ****   None
 130:.\Generated_Source\PSoC4/BLE.c **** 
 131:.\Generated_Source\PSoC4/BLE.c ****  Return:
 132:.\Generated_Source\PSoC4/BLE.c ****   None
 133:.\Generated_Source\PSoC4/BLE.c **** 
 134:.\Generated_Source\PSoC4/BLE.c **** ******************************************************************************/
 135:.\Generated_Source\PSoC4/BLE.c **** void CyBle_Init(void)
 136:.\Generated_Source\PSoC4/BLE.c **** {
 158              		.loc 1 136 0
 159              		.cfi_startproc
 160 0000 80B5     		push	{r7, lr}
 161              		.cfi_def_cfa_offset 8
 162              		.cfi_offset 7, -8
 163              		.cfi_offset 14, -4
 164 0002 00AF     		add	r7, sp, #0
 165              		.cfi_def_cfa_register 7
 137:.\Generated_Source\PSoC4/BLE.c ****     cyBle_eventHandlerFlag = 0u;
 166              		.loc 1 137 0
 167 0004 074B     		ldr	r3, .L2
 168 0006 0022     		mov	r2, #0
 169 0008 1A70     		strb	r2, [r3]
 138:.\Generated_Source\PSoC4/BLE.c ****     cyBle_busyStatus = CYBLE_STACK_STATE_FREE;
 170              		.loc 1 138 0
 171 000a 074B     		ldr	r3, .L2+4
 172 000c 0022     		mov	r2, #0
 173 000e 1A70     		strb	r2, [r3]
 139:.\Generated_Source\PSoC4/BLE.c ****     
 140:.\Generated_Source\PSoC4/BLE.c ****     #if(CYBLE_GAP_ROLE_PERIPHERAL || CYBLE_GAP_ROLE_BROADCASTER) 
 141:.\Generated_Source\PSoC4/BLE.c ****         cyBle_advertisingIntervalType = CYBLE_ADVERTISING_FAST; 
 174              		.loc 1 141 0
 175 0010 064B     		ldr	r3, .L2+8
 176 0012 0022     		mov	r2, #0
 177 0014 1A70     		strb	r2, [r3]
 142:.\Generated_Source\PSoC4/BLE.c ****     #endif /* (CYBLE_GAP_ROLE_PERIPHERAL || CYBLE_GAP_ROLE_BROADCASTER)  */
 143:.\Generated_Source\PSoC4/BLE.c ****     #if(CYBLE_GAP_ROLE_CENTRAL || CYBLE_GAP_ROLE_OBSERVER)
 144:.\Generated_Source\PSoC4/BLE.c ****         cyBle_scanningIntervalType = CYBLE_SCANNING_FAST; 
 145:.\Generated_Source\PSoC4/BLE.c ****     #endif /* (CYBLE_GAP_ROLE_CENTRAL || CYBLE_GAP_ROLE_OBSERVER) */
 146:.\Generated_Source\PSoC4/BLE.c ****         
 147:.\Generated_Source\PSoC4/BLE.c ****     /* Init default connection parameters. 
 148:.\Generated_Source\PSoC4/BLE.c ****        Application may change it before initiating a connection */
 149:.\Generated_Source\PSoC4/BLE.c ****     #if(CYBLE_GAP_ROLE_CENTRAL)
 150:.\Generated_Source\PSoC4/BLE.c ****         cyBle_connectionParameters.scanIntv = cyBle_discoveryInfo.scanIntv;
 151:.\Generated_Source\PSoC4/BLE.c ****         cyBle_connectionParameters.scanWindow = cyBle_discoveryInfo.scanWindow;
 152:.\Generated_Source\PSoC4/BLE.c ****         cyBle_connectionParameters.ownAddrType = cyBle_discoveryInfo.ownAddrType;
 153:.\Generated_Source\PSoC4/BLE.c ****         cyBle_connectionParameters.initiatorFilterPolicy = cyBle_discoveryInfo.scanFilterPolicy;
 154:.\Generated_Source\PSoC4/BLE.c ****         cyBle_connectionParameters.connIntvMin = CYBLE_GAPC_CONNECTION_INTERVAL_MIN;
 155:.\Generated_Source\PSoC4/BLE.c ****         cyBle_connectionParameters.connIntvMax = CYBLE_GAPC_CONNECTION_INTERVAL_MAX;
 156:.\Generated_Source\PSoC4/BLE.c ****         cyBle_connectionParameters.connLatency = CYBLE_GAPC_CONNECTION_SLAVE_LATENCY;
 157:.\Generated_Source\PSoC4/BLE.c ****         cyBle_connectionParameters.supervisionTO = CYBLE_GAPC_CONNECTION_TIME_OUT;
 158:.\Generated_Source\PSoC4/BLE.c ****         cyBle_connectionParameters.minCeLength = 0x0000u;
 159:.\Generated_Source\PSoC4/BLE.c ****         cyBle_connectionParameters.maxCeLength = 0xFFFFu;
 160:.\Generated_Source\PSoC4/BLE.c ****         
 161:.\Generated_Source\PSoC4/BLE.c ****         cyBle_connectingTimeout = CYBLE_GAPC_CONNECTING_TIMEOUT;
 162:.\Generated_Source\PSoC4/BLE.c ****     #endif /* CYBLE_GAP_ROLE_CENTRAL */
 163:.\Generated_Source\PSoC4/BLE.c **** 
 164:.\Generated_Source\PSoC4/BLE.c ****     CyBle_ServiceInit();
 178              		.loc 1 164 0
ARM GAS  C:\Users\Evan\AppData\Local\Temp\ccsPcayk.s 			page 7


 179 0016 FFF7FEFF 		bl	CyBle_ServiceInit
 165:.\Generated_Source\PSoC4/BLE.c **** 
 166:.\Generated_Source\PSoC4/BLE.c **** #if((CYBLE_GAP_ROLE_PERIPHERAL || CYBLE_GAP_ROLE_CENTRAL) && (CYBLE_BONDING_REQUIREMENT == CYBLE_BO
 167:.\Generated_Source\PSoC4/BLE.c ****     cyBle_pendingFlashWrite = 0u;
 180              		.loc 1 167 0
 181 001a 054B     		ldr	r3, .L2+12
 182 001c 0022     		mov	r2, #0
 183 001e 1A70     		strb	r2, [r3]
 168:.\Generated_Source\PSoC4/BLE.c **** #endif  /* (CYBLE_BONDING_REQUIREMENT == CYBLE_BONDING_YES) */
 169:.\Generated_Source\PSoC4/BLE.c **** 
 170:.\Generated_Source\PSoC4/BLE.c **** }
 184              		.loc 1 170 0
 185 0020 BD46     		mov	sp, r7
 186              		@ sp needed
 187 0022 80BD     		pop	{r7, pc}
 188              	.L3:
 189              		.align	2
 190              	.L2:
 191 0024 00000000 		.word	cyBle_eventHandlerFlag
 192 0028 00000000 		.word	cyBle_busyStatus
 193 002c 00000000 		.word	cyBle_advertisingIntervalType
 194 0030 00000000 		.word	cyBle_pendingFlashWrite
 195              		.cfi_endproc
 196              	.LFE2:
 197              		.size	CyBle_Init, .-CyBle_Init
 198              		.section	.text.CyBle_ServiceInit,"ax",%progbits
 199              		.align	2
 200              		.global	CyBle_ServiceInit
 201              		.code	16
 202              		.thumb_func
 203              		.type	CyBle_ServiceInit, %function
 204              	CyBle_ServiceInit:
 205              	.LFB3:
 171:.\Generated_Source\PSoC4/BLE.c **** 
 172:.\Generated_Source\PSoC4/BLE.c **** 
 173:.\Generated_Source\PSoC4/BLE.c **** /******************************************************************************
 174:.\Generated_Source\PSoC4/BLE.c **** ##Function Name: CyBle_ServiceInit
 175:.\Generated_Source\PSoC4/BLE.c **** *******************************************************************************
 176:.\Generated_Source\PSoC4/BLE.c **** 
 177:.\Generated_Source\PSoC4/BLE.c **** Summary:
 178:.\Generated_Source\PSoC4/BLE.c ****  Initializes all included services.
 179:.\Generated_Source\PSoC4/BLE.c **** 
 180:.\Generated_Source\PSoC4/BLE.c **** Parameters:
 181:.\Generated_Source\PSoC4/BLE.c ****  None
 182:.\Generated_Source\PSoC4/BLE.c **** 
 183:.\Generated_Source\PSoC4/BLE.c **** Return:
 184:.\Generated_Source\PSoC4/BLE.c ****  None
 185:.\Generated_Source\PSoC4/BLE.c **** 
 186:.\Generated_Source\PSoC4/BLE.c **** ******************************************************************************/
 187:.\Generated_Source\PSoC4/BLE.c **** void CyBle_ServiceInit(void)
 188:.\Generated_Source\PSoC4/BLE.c **** {
 206              		.loc 1 188 0
 207              		.cfi_startproc
 208 0000 80B5     		push	{r7, lr}
 209              		.cfi_def_cfa_offset 8
 210              		.cfi_offset 7, -8
 211              		.cfi_offset 14, -4
ARM GAS  C:\Users\Evan\AppData\Local\Temp\ccsPcayk.s 			page 8


 212 0002 00AF     		add	r7, sp, #0
 213              		.cfi_def_cfa_register 7
 189:.\Generated_Source\PSoC4/BLE.c ****     #if(CYBLE_GATT_ROLE_CLIENT)
 190:.\Generated_Source\PSoC4/BLE.c ****         (void)memset(&cyBle_gapc, 0, sizeof(cyBle_gapc));
 214              		.loc 1 190 0
 215 0004 064B     		ldr	r3, .L5
 216 0006 181C     		mov	r0, r3
 217 0008 0021     		mov	r1, #0
 218 000a 0A22     		mov	r2, #10
 219 000c FFF7FEFF 		bl	memset
 191:.\Generated_Source\PSoC4/BLE.c ****         (void)memset(&cyBle_gattc, 0, sizeof(cyBle_gattc));
 220              		.loc 1 191 0
 221 0010 044B     		ldr	r3, .L5+4
 222 0012 181C     		mov	r0, r3
 223 0014 0021     		mov	r1, #0
 224 0016 0622     		mov	r2, #6
 225 0018 FFF7FEFF 		bl	memset
 192:.\Generated_Source\PSoC4/BLE.c ****     #endif /* CYBLE_GATT_ROLE_CLIENT */
 193:.\Generated_Source\PSoC4/BLE.c ****     
 194:.\Generated_Source\PSoC4/BLE.c ****     #ifdef CYBLE_ANS
 195:.\Generated_Source\PSoC4/BLE.c ****         CyBle_AnsInit();
 196:.\Generated_Source\PSoC4/BLE.c ****     #endif /* CYBLE_ANS */
 197:.\Generated_Source\PSoC4/BLE.c ****     
 198:.\Generated_Source\PSoC4/BLE.c ****     #ifdef CYBLE_BAS
 199:.\Generated_Source\PSoC4/BLE.c ****         CyBle_BasInit();
 200:.\Generated_Source\PSoC4/BLE.c ****     #endif /* CYBLE_BAS */
 201:.\Generated_Source\PSoC4/BLE.c ****     
 202:.\Generated_Source\PSoC4/BLE.c ****     #ifdef CYBLE_BLS
 203:.\Generated_Source\PSoC4/BLE.c ****         CyBle_BlsInit();
 204:.\Generated_Source\PSoC4/BLE.c ****     #endif /* CYBLE_BLS */
 205:.\Generated_Source\PSoC4/BLE.c ****     
 206:.\Generated_Source\PSoC4/BLE.c ****     #ifdef CYBLE_CGMS
 207:.\Generated_Source\PSoC4/BLE.c ****         CyBle_CgmsInit();
 208:.\Generated_Source\PSoC4/BLE.c ****     #endif /* CYBLE_CGMS */
 209:.\Generated_Source\PSoC4/BLE.c **** 
 210:.\Generated_Source\PSoC4/BLE.c ****     #ifdef CYBLE_CPS
 211:.\Generated_Source\PSoC4/BLE.c ****         CyBle_CpsInit();
 212:.\Generated_Source\PSoC4/BLE.c ****     #endif /* CYBLE_CPS */
 213:.\Generated_Source\PSoC4/BLE.c **** 
 214:.\Generated_Source\PSoC4/BLE.c ****     #ifdef CYBLE_CSCS
 215:.\Generated_Source\PSoC4/BLE.c ****         CyBle_CscsInit();
 216:.\Generated_Source\PSoC4/BLE.c ****     #endif /* CYBLE_CSCS */
 217:.\Generated_Source\PSoC4/BLE.c ****     
 218:.\Generated_Source\PSoC4/BLE.c ****     #ifdef CYBLE_CTS
 219:.\Generated_Source\PSoC4/BLE.c ****         CyBle_CtsInit();
 220:.\Generated_Source\PSoC4/BLE.c ****     #endif /* CYBLE_CTS */
 221:.\Generated_Source\PSoC4/BLE.c **** 
 222:.\Generated_Source\PSoC4/BLE.c ****     #ifdef CYBLE_DIS
 223:.\Generated_Source\PSoC4/BLE.c ****         CyBle_DisInit();
 224:.\Generated_Source\PSoC4/BLE.c ****     #endif /* CYBLE_DIS */
 225:.\Generated_Source\PSoC4/BLE.c **** 
 226:.\Generated_Source\PSoC4/BLE.c ****     #ifdef CYBLE_GLS
 227:.\Generated_Source\PSoC4/BLE.c ****         CyBle_GlsInit();
 228:.\Generated_Source\PSoC4/BLE.c ****     #endif /* CYBLE_GLS */
 229:.\Generated_Source\PSoC4/BLE.c ****     
 230:.\Generated_Source\PSoC4/BLE.c ****     #ifdef CYBLE_HIDS
 231:.\Generated_Source\PSoC4/BLE.c ****         CyBle_HidsInit();
ARM GAS  C:\Users\Evan\AppData\Local\Temp\ccsPcayk.s 			page 9


 232:.\Generated_Source\PSoC4/BLE.c ****     #endif /* CYBLE_HIDS */
 233:.\Generated_Source\PSoC4/BLE.c **** 
 234:.\Generated_Source\PSoC4/BLE.c ****     #ifdef CYBLE_HRS
 235:.\Generated_Source\PSoC4/BLE.c ****         CyBle_HrsInit();
 236:.\Generated_Source\PSoC4/BLE.c ****     #endif /* CYBLE_HRS */
 237:.\Generated_Source\PSoC4/BLE.c ****     
 238:.\Generated_Source\PSoC4/BLE.c ****     #ifdef CYBLE_HTS
 239:.\Generated_Source\PSoC4/BLE.c ****         CyBle_HtsInit();
 240:.\Generated_Source\PSoC4/BLE.c ****     #endif /* CYBLE_RSCS */
 241:.\Generated_Source\PSoC4/BLE.c **** 
 242:.\Generated_Source\PSoC4/BLE.c ****     #ifdef CYBLE_IAS
 243:.\Generated_Source\PSoC4/BLE.c ****         CyBle_IasInit();
 244:.\Generated_Source\PSoC4/BLE.c ****     #endif /* CYBLE_IAS */
 245:.\Generated_Source\PSoC4/BLE.c **** 
 246:.\Generated_Source\PSoC4/BLE.c ****     #ifdef CYBLE_LLS
 247:.\Generated_Source\PSoC4/BLE.c ****         CyBle_LlsInit();
 248:.\Generated_Source\PSoC4/BLE.c ****     #endif /* CYBLE_LLS */
 249:.\Generated_Source\PSoC4/BLE.c **** 
 250:.\Generated_Source\PSoC4/BLE.c ****     #ifdef CYBLE_RTUS
 251:.\Generated_Source\PSoC4/BLE.c ****         CyBle_RtusInit();
 252:.\Generated_Source\PSoC4/BLE.c ****     #endif /* CYBLE_RTUS */
 253:.\Generated_Source\PSoC4/BLE.c **** 
 254:.\Generated_Source\PSoC4/BLE.c ****     #ifdef CYBLE_LNS
 255:.\Generated_Source\PSoC4/BLE.c ****         CyBle_LnsInit();
 256:.\Generated_Source\PSoC4/BLE.c ****     #endif /* CYBLE_LNS */
 257:.\Generated_Source\PSoC4/BLE.c ****     
 258:.\Generated_Source\PSoC4/BLE.c ****     #ifdef CYBLE_PASS
 259:.\Generated_Source\PSoC4/BLE.c ****         CyBle_PassInit();
 260:.\Generated_Source\PSoC4/BLE.c ****     #endif /* CYBLE_PASS */
 261:.\Generated_Source\PSoC4/BLE.c ****     
 262:.\Generated_Source\PSoC4/BLE.c ****     #ifdef CYBLE_RSCS
 263:.\Generated_Source\PSoC4/BLE.c ****         CyBle_RscsInit();
 264:.\Generated_Source\PSoC4/BLE.c ****     #endif /* CYBLE_RSCS */
 265:.\Generated_Source\PSoC4/BLE.c **** 
 266:.\Generated_Source\PSoC4/BLE.c ****     #ifdef CYBLE_SCPS
 267:.\Generated_Source\PSoC4/BLE.c ****         CyBle_ScpsInit();
 268:.\Generated_Source\PSoC4/BLE.c ****     #endif /* CYBLE_SCPS */
 269:.\Generated_Source\PSoC4/BLE.c ****     
 270:.\Generated_Source\PSoC4/BLE.c ****     #ifdef CYBLE_TPS
 271:.\Generated_Source\PSoC4/BLE.c ****         CyBle_TpsInit();
 272:.\Generated_Source\PSoC4/BLE.c ****     #endif /* CYBLE_TPS */
 273:.\Generated_Source\PSoC4/BLE.c ****     
 274:.\Generated_Source\PSoC4/BLE.c ****     #ifdef CYBLE_UDS
 275:.\Generated_Source\PSoC4/BLE.c ****         CyBle_UdsInit();
 276:.\Generated_Source\PSoC4/BLE.c ****     #endif /* CYBLE_UDS */
 277:.\Generated_Source\PSoC4/BLE.c **** }
 226              		.loc 1 277 0
 227 001c BD46     		mov	sp, r7
 228              		@ sp needed
 229 001e 80BD     		pop	{r7, pc}
 230              	.L6:
 231              		.align	2
 232              	.L5:
 233 0020 00000000 		.word	cyBle_gapc
 234 0024 00000000 		.word	cyBle_gattc
 235              		.cfi_endproc
 236              	.LFE3:
ARM GAS  C:\Users\Evan\AppData\Local\Temp\ccsPcayk.s 			page 10


 237              		.size	CyBle_ServiceInit, .-CyBle_ServiceInit
 238              		.section	.text.CyBle_Start,"ax",%progbits
 239              		.align	2
 240              		.global	CyBle_Start
 241              		.code	16
 242              		.thumb_func
 243              		.type	CyBle_Start, %function
 244              	CyBle_Start:
 245              	.LFB4:
 278:.\Generated_Source\PSoC4/BLE.c **** 
 279:.\Generated_Source\PSoC4/BLE.c **** 
 280:.\Generated_Source\PSoC4/BLE.c **** /******************************************************************************
 281:.\Generated_Source\PSoC4/BLE.c **** ##Function Name: CyBle_Start
 282:.\Generated_Source\PSoC4/BLE.c **** *******************************************************************************
 283:.\Generated_Source\PSoC4/BLE.c **** 
 284:.\Generated_Source\PSoC4/BLE.c **** Summary:
 285:.\Generated_Source\PSoC4/BLE.c ****  This function initializes the BLE Stack, which consists of the BLE Stack 
 286:.\Generated_Source\PSoC4/BLE.c ****  Manager, BLE Controller, and BLE Host modules. It takes care of initializing
 287:.\Generated_Source\PSoC4/BLE.c ****  the Profile layer, schedulers, Timer and other platform related
 288:.\Generated_Source\PSoC4/BLE.c ****  resources required for the BLE component. It also registers the callback 
 289:.\Generated_Source\PSoC4/BLE.c ****  function for BLE events that will be registered in the BLE stack.
 290:.\Generated_Source\PSoC4/BLE.c **** 
 291:.\Generated_Source\PSoC4/BLE.c ****  Note that this function does not reset the BLE Stack.
 292:.\Generated_Source\PSoC4/BLE.c **** 
 293:.\Generated_Source\PSoC4/BLE.c ****  For HCI-Mode of operation, this function will not initialize the BLE Host 
 294:.\Generated_Source\PSoC4/BLE.c ****  module.
 295:.\Generated_Source\PSoC4/BLE.c **** 
 296:.\Generated_Source\PSoC4/BLE.c ****  Calling this function results in the generation of CYBLE_EVT_STACK_ON event
 297:.\Generated_Source\PSoC4/BLE.c ****  on successful initialization of the BLE Stack.
 298:.\Generated_Source\PSoC4/BLE.c **** 
 299:.\Generated_Source\PSoC4/BLE.c **** Parameters:
 300:.\Generated_Source\PSoC4/BLE.c ****  callbackFunc: Event callback function to receive events from BLE stack.
 301:.\Generated_Source\PSoC4/BLE.c ****   CYBLE_CALLBACK_T is a function pointer type.
 302:.\Generated_Source\PSoC4/BLE.c **** 
 303:.\Generated_Source\PSoC4/BLE.c **** Return:
 304:.\Generated_Source\PSoC4/BLE.c ****  CYBLE_API_RESULT_T : Return value indicates if the function succeeded or 
 305:.\Generated_Source\PSoC4/BLE.c ****  failed. Following are the possible error codes.
 306:.\Generated_Source\PSoC4/BLE.c ****  <table>
 307:.\Generated_Source\PSoC4/BLE.c ****   Errors codes                        Description
 308:.\Generated_Source\PSoC4/BLE.c ****   ------------                        -----------------
 309:.\Generated_Source\PSoC4/BLE.c ****   CYBLE_ERROR_OK                      On successful operation.
 310:.\Generated_Source\PSoC4/BLE.c ****   CYBLE_ERROR_INVALID_PARAMETER       On passing a NULL pointer to the 
 311:.\Generated_Source\PSoC4/BLE.c ****                                        function when the BLE stack is not 
 312:.\Generated_Source\PSoC4/BLE.c ****                                        built in HCI mode.
 313:.\Generated_Source\PSoC4/BLE.c ****                                        CYBLE_ERROR_INVALID_PARAMETER
 314:.\Generated_Source\PSoC4/BLE.c ****                                        is never returned in HCI mode.
 315:.\Generated_Source\PSoC4/BLE.c ****   CYBLE_ERROR_REPEATED_ATTEMPTS       On invoking this function more
 316:.\Generated_Source\PSoC4/BLE.c ****                                        than once without calling
 317:.\Generated_Source\PSoC4/BLE.c ****                                        CyBle_Shutdown() function 
 318:.\Generated_Source\PSoC4/BLE.c ****                                        between calls to this function.
 319:.\Generated_Source\PSoC4/BLE.c ****  </table>
 320:.\Generated_Source\PSoC4/BLE.c **** 
 321:.\Generated_Source\PSoC4/BLE.c **** ******************************************************************************/
 322:.\Generated_Source\PSoC4/BLE.c **** CYBLE_API_RESULT_T CyBle_Start(CYBLE_CALLBACK_T callbackFunc)
 323:.\Generated_Source\PSoC4/BLE.c **** {
 246              		.loc 1 323 0
 247              		.cfi_startproc
ARM GAS  C:\Users\Evan\AppData\Local\Temp\ccsPcayk.s 			page 11


 248 0000 90B5     		push	{r4, r7, lr}
 249              		.cfi_def_cfa_offset 12
 250              		.cfi_offset 4, -12
 251              		.cfi_offset 7, -8
 252              		.cfi_offset 14, -4
 253 0002 85B0     		sub	sp, sp, #20
 254              		.cfi_def_cfa_offset 32
 255 0004 00AF     		add	r7, sp, #0
 256              		.cfi_def_cfa_register 7
 257 0006 7860     		str	r0, [r7, #4]
 324:.\Generated_Source\PSoC4/BLE.c ****     CYBLE_API_RESULT_T apiResult = CYBLE_ERROR_INVALID_PARAMETER;
 258              		.loc 1 324 0
 259 0008 3B1C     		mov	r3, r7
 260 000a 0E33     		add	r3, r3, #14
 261 000c 0122     		mov	r2, #1
 262 000e 1A80     		strh	r2, [r3]
 325:.\Generated_Source\PSoC4/BLE.c ****     
 326:.\Generated_Source\PSoC4/BLE.c ****     /* Allocate RAM memory for stack */
 327:.\Generated_Source\PSoC4/BLE.c ****     CYBLE_CYALIGNED static uint8 cyBle_stackMemoryRam[CYBLE_STACK_RAM_SIZE];
 328:.\Generated_Source\PSoC4/BLE.c ****     
 329:.\Generated_Source\PSoC4/BLE.c ****     /* If not initialized then initialize all the required hardware and software */
 330:.\Generated_Source\PSoC4/BLE.c ****     if(cyBle_initVar == 0u)
 263              		.loc 1 330 0
 264 0010 154B     		ldr	r3, .L11
 265 0012 1B78     		ldrb	r3, [r3]
 266 0014 002B     		cmp	r3, #0
 267 0016 04D1     		bne	.L8
 331:.\Generated_Source\PSoC4/BLE.c ****     {
 332:.\Generated_Source\PSoC4/BLE.c ****         CyBle_Init();
 268              		.loc 1 332 0
 269 0018 FFF7FEFF 		bl	CyBle_Init
 333:.\Generated_Source\PSoC4/BLE.c ****         cyBle_initVar = 1u;
 270              		.loc 1 333 0
 271 001c 124B     		ldr	r3, .L11
 272 001e 0122     		mov	r2, #1
 273 0020 1A70     		strb	r2, [r3]
 274              	.L8:
 334:.\Generated_Source\PSoC4/BLE.c ****     }
 335:.\Generated_Source\PSoC4/BLE.c ****     
 336:.\Generated_Source\PSoC4/BLE.c ****     if(NULL != callbackFunc)
 275              		.loc 1 336 0
 276 0022 7B68     		ldr	r3, [r7, #4]
 277 0024 002B     		cmp	r3, #0
 278 0026 18D0     		beq	.L9
 337:.\Generated_Source\PSoC4/BLE.c ****     {
 338:.\Generated_Source\PSoC4/BLE.c ****         CyBle_ApplCallback = callbackFunc;
 279              		.loc 1 338 0
 280 0028 104B     		ldr	r3, .L11+4
 281 002a 7A68     		ldr	r2, [r7, #4]
 282 002c 1A60     		str	r2, [r3]
 339:.\Generated_Source\PSoC4/BLE.c **** 
 340:.\Generated_Source\PSoC4/BLE.c ****         apiResult = CyBle_StackInit(&CyBle_EventHandler, cyBle_stackMemoryRam, CYBLE_GATT_MTU);
 283              		.loc 1 340 0
 284 002e 3C1C     		mov	r4, r7
 285 0030 0E34     		add	r4, r4, #14
 286 0032 0F4A     		ldr	r2, .L11+8
 287 0034 0F4B     		ldr	r3, .L11+12
ARM GAS  C:\Users\Evan\AppData\Local\Temp\ccsPcayk.s 			page 12


 288 0036 101C     		mov	r0, r2
 289 0038 191C     		mov	r1, r3
 290 003a 3222     		mov	r2, #50
 291 003c FFF7FEFF 		bl	CyBle_StackInit
 292 0040 031C     		mov	r3, r0
 293 0042 2380     		strh	r3, [r4]
 341:.\Generated_Source\PSoC4/BLE.c **** 
 342:.\Generated_Source\PSoC4/BLE.c ****         if(apiResult == CYBLE_ERROR_OK)
 294              		.loc 1 342 0
 295 0044 3B1C     		mov	r3, r7
 296 0046 0E33     		add	r3, r3, #14
 297 0048 1B88     		ldrh	r3, [r3]
 298 004a 002B     		cmp	r3, #0
 299 004c 05D1     		bne	.L9
 343:.\Generated_Source\PSoC4/BLE.c ****         {
 344:.\Generated_Source\PSoC4/BLE.c ****             CyBle_SetState(CYBLE_STATE_INITIALIZING);
 300              		.loc 1 344 0
 301 004e 0A4B     		ldr	r3, .L11+16
 302 0050 0122     		mov	r2, #1
 303 0052 1A70     		strb	r2, [r3]
 345:.\Generated_Source\PSoC4/BLE.c ****             
 346:.\Generated_Source\PSoC4/BLE.c ****         #if (CYBLE_GATT_ROLE_CLIENT)
 347:.\Generated_Source\PSoC4/BLE.c ****             CyBle_SetClientState(CYBLE_CLIENT_STATE_DISCONNECTED);
 304              		.loc 1 347 0
 305 0054 094B     		ldr	r3, .L11+20
 306 0056 0822     		mov	r2, #8
 307 0058 1A70     		strb	r2, [r3]
 308              	.L9:
 348:.\Generated_Source\PSoC4/BLE.c ****         #endif /* CYBLE_GATT_ROLE_CLIENT */
 349:.\Generated_Source\PSoC4/BLE.c ****             
 350:.\Generated_Source\PSoC4/BLE.c ****         #if(CYBLE_GATT_ROLE_SERVER)
 351:.\Generated_Source\PSoC4/BLE.c ****             apiResult = CyBle_GattsDbRegister(cyBle_gattDB, CYBLE_GATT_DB_INDEX_COUNT, CYBLE_GATT_D
 352:.\Generated_Source\PSoC4/BLE.c ****         #endif /* CYBLE_GATT_ROLE_SERVER */
 353:.\Generated_Source\PSoC4/BLE.c ****         }
 354:.\Generated_Source\PSoC4/BLE.c ****     }
 355:.\Generated_Source\PSoC4/BLE.c **** 
 356:.\Generated_Source\PSoC4/BLE.c ****     return (apiResult);
 309              		.loc 1 356 0
 310 005a 3B1C     		mov	r3, r7
 311 005c 0E33     		add	r3, r3, #14
 312 005e 1B88     		ldrh	r3, [r3]
 357:.\Generated_Source\PSoC4/BLE.c **** }
 313              		.loc 1 357 0
 314 0060 181C     		mov	r0, r3
 315 0062 BD46     		mov	sp, r7
 316 0064 05B0     		add	sp, sp, #20
 317              		@ sp needed
 318 0066 90BD     		pop	{r4, r7, pc}
 319              	.L12:
 320              		.align	2
 321              	.L11:
 322 0068 00000000 		.word	cyBle_initVar
 323 006c 00000000 		.word	CyBle_ApplCallback
 324 0070 00000000 		.word	CyBle_EventHandler
 325 0074 08000000 		.word	cyBle_stackMemoryRam.6034
 326 0078 00000000 		.word	cyBle_state
 327 007c 00000000 		.word	cyBle_clientState
ARM GAS  C:\Users\Evan\AppData\Local\Temp\ccsPcayk.s 			page 13


 328              		.cfi_endproc
 329              	.LFE4:
 330              		.size	CyBle_Start, .-CyBle_Start
 331              		.section	.text.CyBle_Stop,"ax",%progbits
 332              		.align	2
 333              		.global	CyBle_Stop
 334              		.code	16
 335              		.thumb_func
 336              		.type	CyBle_Stop, %function
 337              	CyBle_Stop:
 338              	.LFB5:
 358:.\Generated_Source\PSoC4/BLE.c **** 
 359:.\Generated_Source\PSoC4/BLE.c **** 
 360:.\Generated_Source\PSoC4/BLE.c **** /******************************************************************************
 361:.\Generated_Source\PSoC4/BLE.c **** ##Function Name: CyBle_Stop
 362:.\Generated_Source\PSoC4/BLE.c **** *******************************************************************************
 363:.\Generated_Source\PSoC4/BLE.c **** 
 364:.\Generated_Source\PSoC4/BLE.c **** Summary:
 365:.\Generated_Source\PSoC4/BLE.c ****  This function stops any ongoing operation in the BLE Stack and forces the 
 366:.\Generated_Source\PSoC4/BLE.c ****  BLE Stack to shut down. The only function that can be called after calling
 367:.\Generated_Source\PSoC4/BLE.c ****  this function is CyBle_Start(). 
 368:.\Generated_Source\PSoC4/BLE.c **** 
 369:.\Generated_Source\PSoC4/BLE.c **** Parameters:
 370:.\Generated_Source\PSoC4/BLE.c ****  None
 371:.\Generated_Source\PSoC4/BLE.c **** 
 372:.\Generated_Source\PSoC4/BLE.c **** Return:
 373:.\Generated_Source\PSoC4/BLE.c ****  None
 374:.\Generated_Source\PSoC4/BLE.c **** 
 375:.\Generated_Source\PSoC4/BLE.c **** ******************************************************************************/
 376:.\Generated_Source\PSoC4/BLE.c **** void CyBle_Stop(void)
 377:.\Generated_Source\PSoC4/BLE.c **** {
 339              		.loc 1 377 0
 340              		.cfi_startproc
 341 0000 80B5     		push	{r7, lr}
 342              		.cfi_def_cfa_offset 8
 343              		.cfi_offset 7, -8
 344              		.cfi_offset 14, -4
 345 0002 00AF     		add	r7, sp, #0
 346              		.cfi_def_cfa_register 7
 378:.\Generated_Source\PSoC4/BLE.c ****     CyBle_Shutdown(); /* stop all ongoing activities */
 347              		.loc 1 378 0
 348 0004 FFF7FEFF 		bl	CyBle_Shutdown
 379:.\Generated_Source\PSoC4/BLE.c ****     CyBle_ProcessEvents(); /* process all pending events */
 349              		.loc 1 379 0
 350 0008 FFF7FEFF 		bl	CyBle_ProcessEvents
 380:.\Generated_Source\PSoC4/BLE.c ****     CyBle_SetState(CYBLE_STATE_STOPPED);
 351              		.loc 1 380 0
 352 000c 024B     		ldr	r3, .L14
 353 000e 0022     		mov	r2, #0
 354 0010 1A70     		strb	r2, [r3]
 381:.\Generated_Source\PSoC4/BLE.c **** }
 355              		.loc 1 381 0
 356 0012 BD46     		mov	sp, r7
 357              		@ sp needed
 358 0014 80BD     		pop	{r7, pc}
 359              	.L15:
 360 0016 C046     		.align	2
ARM GAS  C:\Users\Evan\AppData\Local\Temp\ccsPcayk.s 			page 14


 361              	.L14:
 362 0018 00000000 		.word	cyBle_state
 363              		.cfi_endproc
 364              	.LFE5:
 365              		.size	CyBle_Stop, .-CyBle_Stop
 366              		.section	.text.CyBle_StoreBondingData,"ax",%progbits
 367              		.align	2
 368              		.global	CyBle_StoreBondingData
 369              		.code	16
 370              		.thumb_func
 371              		.type	CyBle_StoreBondingData, %function
 372              	CyBle_StoreBondingData:
 373              	.LFB6:
 382:.\Generated_Source\PSoC4/BLE.c **** 
 383:.\Generated_Source\PSoC4/BLE.c **** 
 384:.\Generated_Source\PSoC4/BLE.c **** #if((CYBLE_GAP_ROLE_PERIPHERAL || CYBLE_GAP_ROLE_CENTRAL) && (CYBLE_BONDING_REQUIREMENT == CYBLE_BO
 385:.\Generated_Source\PSoC4/BLE.c **** 
 386:.\Generated_Source\PSoC4/BLE.c ****     
 387:.\Generated_Source\PSoC4/BLE.c **** /******************************************************************************
 388:.\Generated_Source\PSoC4/BLE.c **** ##Function Name: CyBle_StoreBondingData
 389:.\Generated_Source\PSoC4/BLE.c **** *******************************************************************************
 390:.\Generated_Source\PSoC4/BLE.c **** 
 391:.\Generated_Source\PSoC4/BLE.c **** Summary:
 392:.\Generated_Source\PSoC4/BLE.c ****  This function writes the new bonding data from RAM to the dedicated Flash 
 393:.\Generated_Source\PSoC4/BLE.c ****  location as defined by the component. It performs data comparing between RAM
 394:.\Generated_Source\PSoC4/BLE.c ****  and Flash before writing to Flash. If there is no change between RAM and Flash
 395:.\Generated_Source\PSoC4/BLE.c ****  data, then no write is performed. It writes only one flash row in one call.
 396:.\Generated_Source\PSoC4/BLE.c ****  Application should keep calling this function till API return CYBLE_ERROR_OK. 
 397:.\Generated_Source\PSoC4/BLE.c ****  This function is available only when Bonding requirement is selected in
 398:.\Generated_Source\PSoC4/BLE.c ****  Security settings.    
 399:.\Generated_Source\PSoC4/BLE.c ****     
 400:.\Generated_Source\PSoC4/BLE.c **** Parameters:
 401:.\Generated_Source\PSoC4/BLE.c ****  isForceWrite:  If value is set to 0, then stack will check if flash write 
 402:.\Generated_Source\PSoC4/BLE.c ****                 is permissible. 
 403:.\Generated_Source\PSoC4/BLE.c ****  
 404:.\Generated_Source\PSoC4/BLE.c **** Return:
 405:.\Generated_Source\PSoC4/BLE.c ****  Return value is of type CYBLE_API_RESULT_T.
 406:.\Generated_Source\PSoC4/BLE.c ****  * CYBLE_ERROR_OK - On successful operation
 407:.\Generated_Source\PSoC4/BLE.c ****  * CYBLE_ERROR_FLASH_WRITE_NOT_PERMITED - Flash Write is not complete
 408:.\Generated_Source\PSoC4/BLE.c ****    
 409:.\Generated_Source\PSoC4/BLE.c ****  Side Effects:
 410:.\Generated_Source\PSoC4/BLE.c ****   This API will automatically modify the clock settings for the device.
 411:.\Generated_Source\PSoC4/BLE.c ****   Writing to flash requires changes to be done to the IMO (set to 48 MHz)
 412:.\Generated_Source\PSoC4/BLE.c ****   and HFCLK (source set to IMO) settings. The configuration is restored before
 413:.\Generated_Source\PSoC4/BLE.c ****   returning. This will impact the operation of most of the hardware in the
 414:.\Generated_Source\PSoC4/BLE.c ****   device.
 415:.\Generated_Source\PSoC4/BLE.c **** 
 416:.\Generated_Source\PSoC4/BLE.c **** ******************************************************************************/
 417:.\Generated_Source\PSoC4/BLE.c **** CYBLE_API_RESULT_T CyBle_StoreBondingData(uint8 isForceWrite)
 418:.\Generated_Source\PSoC4/BLE.c **** {
 374              		.loc 1 418 0
 375              		.cfi_startproc
 376 0000 90B5     		push	{r4, r7, lr}
 377              		.cfi_def_cfa_offset 12
 378              		.cfi_offset 4, -12
 379              		.cfi_offset 7, -8
 380              		.cfi_offset 14, -4
ARM GAS  C:\Users\Evan\AppData\Local\Temp\ccsPcayk.s 			page 15


 381 0002 85B0     		sub	sp, sp, #20
 382              		.cfi_def_cfa_offset 32
 383 0004 00AF     		add	r7, sp, #0
 384              		.cfi_def_cfa_register 7
 385 0006 021C     		mov	r2, r0
 386 0008 FB1D     		add	r3, r7, #7
 387 000a 1A70     		strb	r2, [r3]
 419:.\Generated_Source\PSoC4/BLE.c ****     CYBLE_API_RESULT_T apiResult = CYBLE_ERROR_OK;
 388              		.loc 1 419 0
 389 000c 3B1C     		mov	r3, r7
 390 000e 0E33     		add	r3, r3, #14
 391 0010 0022     		mov	r2, #0
 392 0012 1A80     		strh	r2, [r3]
 420:.\Generated_Source\PSoC4/BLE.c ****     
 421:.\Generated_Source\PSoC4/BLE.c ****     /* Store Stack data */
 422:.\Generated_Source\PSoC4/BLE.c ****     if((cyBle_pendingFlashWrite & CYBLE_PENDING_STACK_FLASH_WRITE_BIT) != 0u)
 393              		.loc 1 422 0
 394 0014 154B     		ldr	r3, .L19
 395 0016 1B78     		ldrb	r3, [r3]
 396 0018 1A1C     		mov	r2, r3
 397 001a 0123     		mov	r3, #1
 398 001c 1340     		and	r3, r2
 399 001e 1ED0     		beq	.L17
 423:.\Generated_Source\PSoC4/BLE.c ****     {
 424:.\Generated_Source\PSoC4/BLE.c ****         apiResult = CyBle_StoreStackData(isForceWrite);
 400              		.loc 1 424 0
 401 0020 3C1C     		mov	r4, r7
 402 0022 0E34     		add	r4, r4, #14
 403 0024 FB1D     		add	r3, r7, #7
 404 0026 1B78     		ldrb	r3, [r3]
 405 0028 181C     		mov	r0, r3
 406 002a FFF7FEFF 		bl	CyBle_StoreStackData
 407 002e 031C     		mov	r3, r0
 408 0030 2380     		strh	r3, [r4]
 425:.\Generated_Source\PSoC4/BLE.c ****         if(apiResult == CYBLE_ERROR_OK)
 409              		.loc 1 425 0
 410 0032 3B1C     		mov	r3, r7
 411 0034 0E33     		add	r3, r3, #14
 412 0036 1B88     		ldrh	r3, [r3]
 413 0038 002B     		cmp	r3, #0
 414 003a 10D1     		bne	.L17
 426:.\Generated_Source\PSoC4/BLE.c ****         {
 427:.\Generated_Source\PSoC4/BLE.c ****             cyBle_pendingFlashWrite &= (uint8)~CYBLE_PENDING_STACK_FLASH_WRITE_BIT;
 415              		.loc 1 427 0
 416 003c 0B4B     		ldr	r3, .L19
 417 003e 1B78     		ldrb	r3, [r3]
 418 0040 0122     		mov	r2, #1
 419 0042 9343     		bic	r3, r2
 420 0044 DAB2     		uxtb	r2, r3
 421 0046 094B     		ldr	r3, .L19
 422 0048 1A70     		strb	r2, [r3]
 428:.\Generated_Source\PSoC4/BLE.c ****             /* Change apiResult if there are more pending data to store */
 429:.\Generated_Source\PSoC4/BLE.c ****             if((cyBle_pendingFlashWrite & CYBLE_PENDING_CCCD_FLASH_WRITE_BIT) != 0u)
 423              		.loc 1 429 0
 424 004a 084B     		ldr	r3, .L19
 425 004c 1B78     		ldrb	r3, [r3]
 426 004e 1A1C     		mov	r2, r3
ARM GAS  C:\Users\Evan\AppData\Local\Temp\ccsPcayk.s 			page 16


 427 0050 0223     		mov	r3, #2
 428 0052 1340     		and	r3, r2
 429 0054 03D0     		beq	.L17
 430:.\Generated_Source\PSoC4/BLE.c ****             {
 431:.\Generated_Source\PSoC4/BLE.c ****                 apiResult = CYBLE_ERROR_FLASH_WRITE_NOT_PERMITED;
 430              		.loc 1 431 0
 431 0056 3B1C     		mov	r3, r7
 432 0058 0E33     		add	r3, r3, #14
 433 005a 2822     		mov	r2, #40
 434 005c 1A80     		strh	r2, [r3]
 435              	.L17:
 432:.\Generated_Source\PSoC4/BLE.c ****             }
 433:.\Generated_Source\PSoC4/BLE.c ****         }
 434:.\Generated_Source\PSoC4/BLE.c ****     }
 435:.\Generated_Source\PSoC4/BLE.c **** #if(CYBLE_GATT_DB_CCCD_COUNT != 0u)
 436:.\Generated_Source\PSoC4/BLE.c ****     /* Store CCCD values */
 437:.\Generated_Source\PSoC4/BLE.c ****     if( ((apiResult == CYBLE_ERROR_OK) || (isForceWrite != 0u)) && 
 438:.\Generated_Source\PSoC4/BLE.c ****         ((cyBle_pendingFlashWrite & CYBLE_PENDING_CCCD_FLASH_WRITE_BIT) != 0u) &&
 439:.\Generated_Source\PSoC4/BLE.c ****         (cyBle_connHandle.bdHandle <= CYBLE_GAP_MAX_BONDED_DEVICE))
 440:.\Generated_Source\PSoC4/BLE.c ****     {
 441:.\Generated_Source\PSoC4/BLE.c ****         apiResult = CyBle_StoreAppData(cyBle_attValuesCCCD, cyBle_attValuesCCCDFlashMemory[cyBle_co
 442:.\Generated_Source\PSoC4/BLE.c ****                                        CYBLE_GATT_DB_CCCD_COUNT, isForceWrite);
 443:.\Generated_Source\PSoC4/BLE.c ****         if(apiResult == CYBLE_ERROR_OK)
 444:.\Generated_Source\PSoC4/BLE.c ****         {
 445:.\Generated_Source\PSoC4/BLE.c ****             cyBle_pendingFlashWrite &= (uint8)~CYBLE_PENDING_CCCD_FLASH_WRITE_BIT;
 446:.\Generated_Source\PSoC4/BLE.c ****         }
 447:.\Generated_Source\PSoC4/BLE.c ****     }
 448:.\Generated_Source\PSoC4/BLE.c **** #endif /* CYBLE_GATT_DB_CCCD_COUNT != 0u */
 449:.\Generated_Source\PSoC4/BLE.c ****     return(apiResult);
 436              		.loc 1 449 0
 437 005e 3B1C     		mov	r3, r7
 438 0060 0E33     		add	r3, r3, #14
 439 0062 1B88     		ldrh	r3, [r3]
 450:.\Generated_Source\PSoC4/BLE.c **** }
 440              		.loc 1 450 0
 441 0064 181C     		mov	r0, r3
 442 0066 BD46     		mov	sp, r7
 443 0068 05B0     		add	sp, sp, #20
 444              		@ sp needed
 445 006a 90BD     		pop	{r4, r7, pc}
 446              	.L20:
 447              		.align	2
 448              	.L19:
 449 006c 00000000 		.word	cyBle_pendingFlashWrite
 450              		.cfi_endproc
 451              	.LFE6:
 452              		.size	CyBle_StoreBondingData, .-CyBle_StoreBondingData
 453              		.section	.text.CyBle_GappStartAdvertisement,"ax",%progbits
 454              		.align	2
 455              		.global	CyBle_GappStartAdvertisement
 456              		.code	16
 457              		.thumb_func
 458              		.type	CyBle_GappStartAdvertisement, %function
 459              	CyBle_GappStartAdvertisement:
 460              	.LFB7:
 451:.\Generated_Source\PSoC4/BLE.c **** 
 452:.\Generated_Source\PSoC4/BLE.c **** 
ARM GAS  C:\Users\Evan\AppData\Local\Temp\ccsPcayk.s 			page 17


 453:.\Generated_Source\PSoC4/BLE.c **** #endif /* (CYBLE_GAP_ROLE_PERIPHERAL || CYBLE_GAP_ROLE_CENTRAL) && (CYBLE_BONDING_REQUIREMENT == CY
 454:.\Generated_Source\PSoC4/BLE.c **** 
 455:.\Generated_Source\PSoC4/BLE.c **** 
 456:.\Generated_Source\PSoC4/BLE.c **** #if(CYBLE_GAP_ROLE_PERIPHERAL || CYBLE_GAP_ROLE_BROADCASTER)
 457:.\Generated_Source\PSoC4/BLE.c **** 
 458:.\Generated_Source\PSoC4/BLE.c ****     /******************************************************************************
 459:.\Generated_Source\PSoC4/BLE.c ****     ##Function Name: CyBle_GappStartAdvertisement
 460:.\Generated_Source\PSoC4/BLE.c ****     *******************************************************************************
 461:.\Generated_Source\PSoC4/BLE.c ****     
 462:.\Generated_Source\PSoC4/BLE.c ****     Summary:
 463:.\Generated_Source\PSoC4/BLE.c ****      This function is used to start the advertisement using the advertisement data 
 464:.\Generated_Source\PSoC4/BLE.c ****      set in the component customizer's GUI. After invoking this API, the device 
 465:.\Generated_Source\PSoC4/BLE.c ****      will be available for connection by the devices configured for GAP central 
 466:.\Generated_Source\PSoC4/BLE.c ****      role. It is only included if the device is configured for GAP Peripheral or 
 467:.\Generated_Source\PSoC4/BLE.c ****      GAP Peripheral + Central role.
 468:.\Generated_Source\PSoC4/BLE.c ****      
 469:.\Generated_Source\PSoC4/BLE.c ****      On start of advertisement, GAP Peripheral receives the
 470:.\Generated_Source\PSoC4/BLE.c ****      CYBLE_EVT_GAPP_ADVERTISEMENT_START_STOP event. The following events are 
 471:.\Generated_Source\PSoC4/BLE.c ****      possible on invoking this function:
 472:.\Generated_Source\PSoC4/BLE.c ****      
 473:.\Generated_Source\PSoC4/BLE.c ****      * CYBLE_EVT_GAP_DEVICE_CONNECTED: If the device connects to remote GAP 
 474:.\Generated_Source\PSoC4/BLE.c ****                                          Central device
 475:.\Generated_Source\PSoC4/BLE.c ****      * CYBLE_EVT_TIMEOUT: If no device in GAP Central mode connects to this 
 476:.\Generated_Source\PSoC4/BLE.c ****                           device within the specified timeout limit. Stack 
 477:.\Generated_Source\PSoC4/BLE.c ****                           automatically initiate stop advertising when Slow 
 478:.\Generated_Source\PSoC4/BLE.c ****                           advertising was initiated, or starts Slow advertising
 479:.\Generated_Source\PSoC4/BLE.c ****                           after Fast advertising timeout occur.
 480:.\Generated_Source\PSoC4/BLE.c ****      * CYBLE_EVT_GAPP_ADVERTISEMENT_START_STOP: If device started or stopped
 481:.\Generated_Source\PSoC4/BLE.c ****                                                   advertising. Use CyBle_GetState()
 482:.\Generated_Source\PSoC4/BLE.c ****                                                   to determine the state. Sequential 
 483:.\Generated_Source\PSoC4/BLE.c ****                                                   advertising could be started when
 484:.\Generated_Source\PSoC4/BLE.c ****                                                   CYBLE_STATE_DISCONNECTED state is
 485:.\Generated_Source\PSoC4/BLE.c ****                                                   returned.
 486:.\Generated_Source\PSoC4/BLE.c **** 
 487:.\Generated_Source\PSoC4/BLE.c ****     Parameters:
 488:.\Generated_Source\PSoC4/BLE.c ****      uint8 advertisingIntervalType: Fast or slow advertising interval with timings
 489:.\Generated_Source\PSoC4/BLE.c ****                                     entered in Advertising settings section of the
 490:.\Generated_Source\PSoC4/BLE.c ****                                     customizer.
 491:.\Generated_Source\PSoC4/BLE.c ****      * CYBLE_ADVERTISING_FAST   0x00u
 492:.\Generated_Source\PSoC4/BLE.c ****      * CYBLE_ADVERTISING_SLOW   0x01u
 493:.\Generated_Source\PSoC4/BLE.c ****      * CYBLE_ADVERTISING_CUSTOM 0x02u
 494:.\Generated_Source\PSoC4/BLE.c ****     
 495:.\Generated_Source\PSoC4/BLE.c ****     Return:
 496:.\Generated_Source\PSoC4/BLE.c ****      CYBLE_API_RESULT_T : Return value indicates if the function succeeded or
 497:.\Generated_Source\PSoC4/BLE.c ****      failed. Following are the possible error codes.
 498:.\Generated_Source\PSoC4/BLE.c ****      <table>
 499:.\Generated_Source\PSoC4/BLE.c ****       Errors codes                        Description
 500:.\Generated_Source\PSoC4/BLE.c ****       ------------                        -----------
 501:.\Generated_Source\PSoC4/BLE.c ****       CYBLE_ERROR_OK                      On successful operation.
 502:.\Generated_Source\PSoC4/BLE.c ****       CYBLE_ERROR_INVALID_PARAMETER       On passing an invalid parameter.
 503:.\Generated_Source\PSoC4/BLE.c ****      </table>
 504:.\Generated_Source\PSoC4/BLE.c ****     
 505:.\Generated_Source\PSoC4/BLE.c ****     ******************************************************************************/
 506:.\Generated_Source\PSoC4/BLE.c ****     CYBLE_API_RESULT_T CyBle_GappStartAdvertisement(uint8 advertisingIntervalType)
 507:.\Generated_Source\PSoC4/BLE.c ****     {
 461              		.loc 1 507 0
 462              		.cfi_startproc
ARM GAS  C:\Users\Evan\AppData\Local\Temp\ccsPcayk.s 			page 18


 463 0000 90B5     		push	{r4, r7, lr}
 464              		.cfi_def_cfa_offset 12
 465              		.cfi_offset 4, -12
 466              		.cfi_offset 7, -8
 467              		.cfi_offset 14, -4
 468 0002 85B0     		sub	sp, sp, #20
 469              		.cfi_def_cfa_offset 32
 470 0004 00AF     		add	r7, sp, #0
 471              		.cfi_def_cfa_register 7
 472 0006 021C     		mov	r2, r0
 473 0008 FB1D     		add	r3, r7, #7
 474 000a 1A70     		strb	r2, [r3]
 508:.\Generated_Source\PSoC4/BLE.c ****         CYBLE_API_RESULT_T apiResult;
 509:.\Generated_Source\PSoC4/BLE.c ****         
 510:.\Generated_Source\PSoC4/BLE.c ****         if((CYBLE_STATE_DISCONNECTED == CyBle_GetState()) && ((cyBle_eventHandlerFlag & CYBLE_START
 475              		.loc 1 510 0
 476 000c 294B     		ldr	r3, .L28
 477 000e 1B78     		ldrb	r3, [r3]
 478 0010 042B     		cmp	r3, #4
 479 0012 42D1     		bne	.L22
 480              		.loc 1 510 0 is_stmt 0 discriminator 1
 481 0014 284B     		ldr	r3, .L28+4
 482 0016 1B78     		ldrb	r3, [r3]
 483 0018 DBB2     		uxtb	r3, r3
 484 001a 1A1C     		mov	r2, r3
 485 001c 0423     		mov	r3, #4
 486 001e 1340     		and	r3, r2
 487 0020 3BD1     		bne	.L22
 511:.\Generated_Source\PSoC4/BLE.c ****         {   
 512:.\Generated_Source\PSoC4/BLE.c ****             if(advertisingIntervalType == CYBLE_ADVERTISING_FAST)
 488              		.loc 1 512 0 is_stmt 1
 489 0022 FB1D     		add	r3, r7, #7
 490 0024 1B78     		ldrb	r3, [r3]
 491 0026 002B     		cmp	r3, #0
 492 0028 0BD1     		bne	.L23
 513:.\Generated_Source\PSoC4/BLE.c ****             {
 514:.\Generated_Source\PSoC4/BLE.c ****                 cyBle_discoveryModeInfo.advTo = CYBLE_FAST_ADV_TIMEOUT;
 493              		.loc 1 514 0
 494 002a 244B     		ldr	r3, .L28+8
 495 002c 3C22     		mov	r2, #60
 496 002e 1A82     		strh	r2, [r3, #16]
 515:.\Generated_Source\PSoC4/BLE.c ****                 cyBle_discoveryModeInfo.advParam->advIntvMin = CYBLE_FAST_ADV_INT_MIN;
 497              		.loc 1 515 0
 498 0030 224B     		ldr	r3, .L28+8
 499 0032 5B68     		ldr	r3, [r3, #4]
 500 0034 2022     		mov	r2, #32
 501 0036 1A80     		strh	r2, [r3]
 516:.\Generated_Source\PSoC4/BLE.c ****                 cyBle_discoveryModeInfo.advParam->advIntvMax = CYBLE_FAST_ADV_INT_MAX;
 502              		.loc 1 516 0
 503 0038 204B     		ldr	r3, .L28+8
 504 003a 5B68     		ldr	r3, [r3, #4]
 505 003c 3022     		mov	r2, #48
 506 003e 5A80     		strh	r2, [r3, #2]
 507 0040 10E0     		b	.L24
 508              	.L23:
 517:.\Generated_Source\PSoC4/BLE.c ****             }
 518:.\Generated_Source\PSoC4/BLE.c ****             else if(advertisingIntervalType == CYBLE_ADVERTISING_SLOW)
ARM GAS  C:\Users\Evan\AppData\Local\Temp\ccsPcayk.s 			page 19


 509              		.loc 1 518 0
 510 0042 FB1D     		add	r3, r7, #7
 511 0044 1B78     		ldrb	r3, [r3]
 512 0046 012B     		cmp	r3, #1
 513 0048 0CD1     		bne	.L24
 519:.\Generated_Source\PSoC4/BLE.c ****             {
 520:.\Generated_Source\PSoC4/BLE.c ****                 cyBle_discoveryModeInfo.advTo = CYBLE_SLOW_ADV_TIMEOUT;
 514              		.loc 1 520 0
 515 004a 1C4B     		ldr	r3, .L28+8
 516 004c 9622     		mov	r2, #150
 517 004e 1A82     		strh	r2, [r3, #16]
 521:.\Generated_Source\PSoC4/BLE.c ****                 cyBle_discoveryModeInfo.advParam->advIntvMin = CYBLE_SLOW_ADV_INT_MIN;
 518              		.loc 1 521 0
 519 0050 1A4B     		ldr	r3, .L28+8
 520 0052 5B68     		ldr	r3, [r3, #4]
 521 0054 C822     		mov	r2, #200
 522 0056 D200     		lsl	r2, r2, #3
 523 0058 1A80     		strh	r2, [r3]
 522:.\Generated_Source\PSoC4/BLE.c ****                 cyBle_discoveryModeInfo.advParam->advIntvMax = CYBLE_SLOW_ADV_INT_MAX;
 524              		.loc 1 522 0
 525 005a 184B     		ldr	r3, .L28+8
 526 005c 5B68     		ldr	r3, [r3, #4]
 527 005e 8022     		mov	r2, #128
 528 0060 D201     		lsl	r2, r2, #7
 529 0062 5A80     		strh	r2, [r3, #2]
 530              	.L24:
 523:.\Generated_Source\PSoC4/BLE.c ****             }       
 524:.\Generated_Source\PSoC4/BLE.c ****             else /* Do not update advertising intervals */
 525:.\Generated_Source\PSoC4/BLE.c ****             {
 526:.\Generated_Source\PSoC4/BLE.c ****             }
 527:.\Generated_Source\PSoC4/BLE.c ****             cyBle_advertisingIntervalType = advertisingIntervalType;
 531              		.loc 1 527 0
 532 0064 164B     		ldr	r3, .L28+12
 533 0066 FA1D     		add	r2, r7, #7
 534 0068 1278     		ldrb	r2, [r2]
 535 006a 1A70     		strb	r2, [r3]
 528:.\Generated_Source\PSoC4/BLE.c ****             apiResult = CyBle_GappEnterDiscoveryMode(&cyBle_discoveryModeInfo);
 536              		.loc 1 528 0
 537 006c 3C1C     		mov	r4, r7
 538 006e 0E34     		add	r4, r4, #14
 539 0070 124B     		ldr	r3, .L28+8
 540 0072 181C     		mov	r0, r3
 541 0074 FFF7FEFF 		bl	CyBle_GappEnterDiscoveryMode
 542 0078 031C     		mov	r3, r0
 543 007a 2380     		strh	r3, [r4]
 529:.\Generated_Source\PSoC4/BLE.c ****         
 530:.\Generated_Source\PSoC4/BLE.c ****             if(CYBLE_ERROR_OK == apiResult)
 544              		.loc 1 530 0
 545 007c 3B1C     		mov	r3, r7
 546 007e 0E33     		add	r3, r3, #14
 547 0080 1B88     		ldrh	r3, [r3]
 548 0082 002B     		cmp	r3, #0
 549 0084 08D1     		bne	.L25
 531:.\Generated_Source\PSoC4/BLE.c ****             {
 532:.\Generated_Source\PSoC4/BLE.c ****                 cyBle_eventHandlerFlag |= CYBLE_START_FLAG;
 550              		.loc 1 532 0
 551 0086 0C4B     		ldr	r3, .L28+4
ARM GAS  C:\Users\Evan\AppData\Local\Temp\ccsPcayk.s 			page 20


 552 0088 1B78     		ldrb	r3, [r3]
 553 008a DBB2     		uxtb	r3, r3
 554 008c 0422     		mov	r2, #4
 555 008e 1343     		orr	r3, r2
 556 0090 DAB2     		uxtb	r2, r3
 557 0092 094B     		ldr	r3, .L28+4
 558 0094 1A70     		strb	r2, [r3]
 530:.\Generated_Source\PSoC4/BLE.c ****             if(CYBLE_ERROR_OK == apiResult)
 559              		.loc 1 530 0
 560 0096 05E0     		b	.L26
 561              	.L25:
 530:.\Generated_Source\PSoC4/BLE.c ****             if(CYBLE_ERROR_OK == apiResult)
 562              		.loc 1 530 0 is_stmt 0 discriminator 1
 563 0098 04E0     		b	.L26
 564              	.L22:
 533:.\Generated_Source\PSoC4/BLE.c ****             }
 534:.\Generated_Source\PSoC4/BLE.c ****         }
 535:.\Generated_Source\PSoC4/BLE.c ****         else
 536:.\Generated_Source\PSoC4/BLE.c ****         {
 537:.\Generated_Source\PSoC4/BLE.c ****             apiResult = CYBLE_ERROR_INVALID_STATE;
 565              		.loc 1 537 0 is_stmt 1
 566 009a 3B1C     		mov	r3, r7
 567 009c 0E33     		add	r3, r3, #14
 568 009e 8322     		mov	r2, #131
 569 00a0 5200     		lsl	r2, r2, #1
 570 00a2 1A80     		strh	r2, [r3]
 571              	.L26:
 538:.\Generated_Source\PSoC4/BLE.c ****         }
 539:.\Generated_Source\PSoC4/BLE.c **** 
 540:.\Generated_Source\PSoC4/BLE.c ****         return (apiResult);
 572              		.loc 1 540 0
 573 00a4 3B1C     		mov	r3, r7
 574 00a6 0E33     		add	r3, r3, #14
 575 00a8 1B88     		ldrh	r3, [r3]
 541:.\Generated_Source\PSoC4/BLE.c ****     }
 576              		.loc 1 541 0
 577 00aa 181C     		mov	r0, r3
 578 00ac BD46     		mov	sp, r7
 579 00ae 05B0     		add	sp, sp, #20
 580              		@ sp needed
 581 00b0 90BD     		pop	{r4, r7, pc}
 582              	.L29:
 583 00b2 C046     		.align	2
 584              	.L28:
 585 00b4 00000000 		.word	cyBle_state
 586 00b8 00000000 		.word	cyBle_eventHandlerFlag
 587 00bc 00000000 		.word	cyBle_discoveryModeInfo
 588 00c0 00000000 		.word	cyBle_advertisingIntervalType
 589              		.cfi_endproc
 590              	.LFE7:
 591              		.size	CyBle_GappStartAdvertisement, .-CyBle_GappStartAdvertisement
 592              		.section	.text.CyBle_GappStopAdvertisement,"ax",%progbits
 593              		.align	2
 594              		.global	CyBle_GappStopAdvertisement
 595              		.code	16
 596              		.thumb_func
 597              		.type	CyBle_GappStopAdvertisement, %function
ARM GAS  C:\Users\Evan\AppData\Local\Temp\ccsPcayk.s 			page 21


 598              	CyBle_GappStopAdvertisement:
 599              	.LFB8:
 542:.\Generated_Source\PSoC4/BLE.c **** 
 543:.\Generated_Source\PSoC4/BLE.c ****     
 544:.\Generated_Source\PSoC4/BLE.c ****     /******************************************************************************
 545:.\Generated_Source\PSoC4/BLE.c ****     ##Function Name: CyBle_GappStopAdvertisement
 546:.\Generated_Source\PSoC4/BLE.c ****     *******************************************************************************
 547:.\Generated_Source\PSoC4/BLE.c ****     
 548:.\Generated_Source\PSoC4/BLE.c ****      Summary:
 549:.\Generated_Source\PSoC4/BLE.c ****       This function can be used to exit from discovery mode. After the execution 
 550:.\Generated_Source\PSoC4/BLE.c ****       of this function, there will no longer be any advertisements. On stopping 
 551:.\Generated_Source\PSoC4/BLE.c ****       advertising, GAP Peripheral receives CYBLE_EVT_GAPP_ADVERTISEMENT_START_STOP
 552:.\Generated_Source\PSoC4/BLE.c ****       event. It is expected that the application layer tracks the function call 
 553:.\Generated_Source\PSoC4/BLE.c ****       performed before occurrence of this event as this event can occur on making 
 554:.\Generated_Source\PSoC4/BLE.c ****       a call to Cy_BleGappStartAdvertisement(), CyBle_GappEnterDiscoveryMode(), 
 555:.\Generated_Source\PSoC4/BLE.c ****       or CyBle_GappStartAdvertisement() functions as well.
 556:.\Generated_Source\PSoC4/BLE.c ****       
 557:.\Generated_Source\PSoC4/BLE.c ****       The following event occurs on invoking this function:
 558:.\Generated_Source\PSoC4/BLE.c ****       * CYBLE_EVT_GAPP_ADVERTISEMENT_START_STOP
 559:.\Generated_Source\PSoC4/BLE.c ****     
 560:.\Generated_Source\PSoC4/BLE.c ****      Parameters:
 561:.\Generated_Source\PSoC4/BLE.c ****       None
 562:.\Generated_Source\PSoC4/BLE.c ****     
 563:.\Generated_Source\PSoC4/BLE.c ****      Return:
 564:.\Generated_Source\PSoC4/BLE.c ****       None
 565:.\Generated_Source\PSoC4/BLE.c ****     
 566:.\Generated_Source\PSoC4/BLE.c ****     ******************************************************************************/
 567:.\Generated_Source\PSoC4/BLE.c ****     void CyBle_GappStopAdvertisement(void)
 568:.\Generated_Source\PSoC4/BLE.c ****     {
 600              		.loc 1 568 0
 601              		.cfi_startproc
 602 0000 80B5     		push	{r7, lr}
 603              		.cfi_def_cfa_offset 8
 604              		.cfi_offset 7, -8
 605              		.cfi_offset 14, -4
 606 0002 00AF     		add	r7, sp, #0
 607              		.cfi_def_cfa_register 7
 569:.\Generated_Source\PSoC4/BLE.c ****         CyBle_GappExitDiscoveryMode();
 608              		.loc 1 569 0
 609 0004 FFF7FEFF 		bl	CyBle_GappExitDiscoveryMode
 570:.\Generated_Source\PSoC4/BLE.c ****         cyBle_eventHandlerFlag |= CYBLE_STOP_FLAG;
 610              		.loc 1 570 0
 611 0008 044B     		ldr	r3, .L31
 612 000a 1B78     		ldrb	r3, [r3]
 613 000c DBB2     		uxtb	r3, r3
 614 000e 0822     		mov	r2, #8
 615 0010 1343     		orr	r3, r2
 616 0012 DAB2     		uxtb	r2, r3
 617 0014 014B     		ldr	r3, .L31
 618 0016 1A70     		strb	r2, [r3]
 571:.\Generated_Source\PSoC4/BLE.c ****     }
 619              		.loc 1 571 0
 620 0018 BD46     		mov	sp, r7
 621              		@ sp needed
 622 001a 80BD     		pop	{r7, pc}
 623              	.L32:
 624              		.align	2
ARM GAS  C:\Users\Evan\AppData\Local\Temp\ccsPcayk.s 			page 22


 625              	.L31:
 626 001c 00000000 		.word	cyBle_eventHandlerFlag
 627              		.cfi_endproc
 628              	.LFE8:
 629              		.size	CyBle_GappStopAdvertisement, .-CyBle_GappStopAdvertisement
 630              		.section	.text.CyBle_ChangeAdDeviceAddress,"ax",%progbits
 631              		.align	2
 632              		.global	CyBle_ChangeAdDeviceAddress
 633              		.code	16
 634              		.thumb_func
 635              		.type	CyBle_ChangeAdDeviceAddress, %function
 636              	CyBle_ChangeAdDeviceAddress:
 637              	.LFB9:
 572:.\Generated_Source\PSoC4/BLE.c ****     
 573:.\Generated_Source\PSoC4/BLE.c ****     
 574:.\Generated_Source\PSoC4/BLE.c ****     /******************************************************************************
 575:.\Generated_Source\PSoC4/BLE.c ****     ##Function Name: CyBle_ChangeAdDeviceAddress
 576:.\Generated_Source\PSoC4/BLE.c ****     *******************************************************************************
 577:.\Generated_Source\PSoC4/BLE.c **** 
 578:.\Generated_Source\PSoC4/BLE.c ****     Summary:
 579:.\Generated_Source\PSoC4/BLE.c ****      This API is used to set the Bluetooth device address into the advertisement 
 580:.\Generated_Source\PSoC4/BLE.c ****      or scan response data structure.
 581:.\Generated_Source\PSoC4/BLE.c **** 
 582:.\Generated_Source\PSoC4/BLE.c ****     Parameters:
 583:.\Generated_Source\PSoC4/BLE.c ****      bdAddr: Bluetooth Device address. The variable is of type CYBLE_GAP_BD_ADDR_T
 584:.\Generated_Source\PSoC4/BLE.c ****      uint8 dest: 0 - avrevtisement structure, not zero value selects scan response
 585:.\Generated_Source\PSoC4/BLE.c ****                  structure.
 586:.\Generated_Source\PSoC4/BLE.c **** 
 587:.\Generated_Source\PSoC4/BLE.c ****     Return:
 588:.\Generated_Source\PSoC4/BLE.c ****      None
 589:.\Generated_Source\PSoC4/BLE.c ****  
 590:.\Generated_Source\PSoC4/BLE.c ****     ******************************************************************************/
 591:.\Generated_Source\PSoC4/BLE.c ****     void CyBle_ChangeAdDeviceAddress(const CYBLE_GAP_BD_ADDR_T* bdAddr, uint8 dest)
 592:.\Generated_Source\PSoC4/BLE.c ****     {
 638              		.loc 1 592 0
 639              		.cfi_startproc
 640 0000 80B5     		push	{r7, lr}
 641              		.cfi_def_cfa_offset 8
 642              		.cfi_offset 7, -8
 643              		.cfi_offset 14, -4
 644 0002 84B0     		sub	sp, sp, #16
 645              		.cfi_def_cfa_offset 24
 646 0004 00AF     		add	r7, sp, #0
 647              		.cfi_def_cfa_register 7
 648 0006 7860     		str	r0, [r7, #4]
 649 0008 0A1C     		mov	r2, r1
 650 000a FB1C     		add	r3, r7, #3
 651 000c 1A70     		strb	r2, [r3]
 593:.\Generated_Source\PSoC4/BLE.c ****         uint8 i;
 594:.\Generated_Source\PSoC4/BLE.c ****         uint8 *destBuffer = NULL;
 652              		.loc 1 594 0
 653 000e 0023     		mov	r3, #0
 654 0010 BB60     		str	r3, [r7, #8]
 595:.\Generated_Source\PSoC4/BLE.c ****         
 596:.\Generated_Source\PSoC4/BLE.c ****         if(dest == 0u)      /* Destination - advertising structure */
 597:.\Generated_Source\PSoC4/BLE.c ****         {
 598:.\Generated_Source\PSoC4/BLE.c ****             #ifdef CYBLE_ADV_PKT_INDEX_BLUETOOTH_DEVICE_ADDRESS
ARM GAS  C:\Users\Evan\AppData\Local\Temp\ccsPcayk.s 			page 23


 599:.\Generated_Source\PSoC4/BLE.c ****                 destBuffer = &cyBle_discoveryData.advData[CYBLE_ADV_PKT_INDEX_BLUETOOTH_DEVICE_ADDR
 600:.\Generated_Source\PSoC4/BLE.c ****             #endif /* CYBLE_ADV_PKT_INDEX_BLUETOOTH_DEVICE_ADDRESS */
 601:.\Generated_Source\PSoC4/BLE.c ****         }
 602:.\Generated_Source\PSoC4/BLE.c ****         else                /* Destination - scan response structure */
 603:.\Generated_Source\PSoC4/BLE.c ****         {
 604:.\Generated_Source\PSoC4/BLE.c ****             #ifdef CYBLE_SCN_PKT_INDEX_BLUETOOTH_DEVICE_ADDRESS
 605:.\Generated_Source\PSoC4/BLE.c ****                 destBuffer = &cyBle_scanRspData.scanRspData[CYBLE_SCN_PKT_INDEX_BLUETOOTH_DEVICE_AD
 606:.\Generated_Source\PSoC4/BLE.c ****             #endif /* CYBLE_SCN_PKT_INDEX_BLUETOOTH_DEVICE_ADDRESS */    
 607:.\Generated_Source\PSoC4/BLE.c ****         }
 608:.\Generated_Source\PSoC4/BLE.c ****         
 609:.\Generated_Source\PSoC4/BLE.c ****         if(destBuffer != NULL)
 655              		.loc 1 609 0
 656 0012 BB68     		ldr	r3, [r7, #8]
 657 0014 002B     		cmp	r3, #0
 658 0016 20D0     		beq	.L33
 610:.\Generated_Source\PSoC4/BLE.c ****         {
 611:.\Generated_Source\PSoC4/BLE.c ****             /* Update Device Address type */
 612:.\Generated_Source\PSoC4/BLE.c ****             destBuffer[0u] = bdAddr->type;
 659              		.loc 1 612 0
 660 0018 7B68     		ldr	r3, [r7, #4]
 661 001a 9A79     		ldrb	r2, [r3, #6]
 662 001c BB68     		ldr	r3, [r7, #8]
 663 001e 1A70     		strb	r2, [r3]
 613:.\Generated_Source\PSoC4/BLE.c ****             
 614:.\Generated_Source\PSoC4/BLE.c ****             for(i = 0; i < CYBLE_GAP_BD_ADDR_SIZE; i++)
 664              		.loc 1 614 0
 665 0020 3B1C     		mov	r3, r7
 666 0022 0F33     		add	r3, r3, #15
 667 0024 0022     		mov	r2, #0
 668 0026 1A70     		strb	r2, [r3]
 669 0028 12E0     		b	.L35
 670              	.L36:
 615:.\Generated_Source\PSoC4/BLE.c ****             {
 616:.\Generated_Source\PSoC4/BLE.c ****                 destBuffer[i + 1u] = bdAddr->bdAddr[i];
 671              		.loc 1 616 0 discriminator 2
 672 002a 3B1C     		mov	r3, r7
 673 002c 0F33     		add	r3, r3, #15
 674 002e 1B78     		ldrb	r3, [r3]
 675 0030 0133     		add	r3, r3, #1
 676 0032 BA68     		ldr	r2, [r7, #8]
 677 0034 D318     		add	r3, r2, r3
 678 0036 3A1C     		mov	r2, r7
 679 0038 0F32     		add	r2, r2, #15
 680 003a 1278     		ldrb	r2, [r2]
 681 003c 7968     		ldr	r1, [r7, #4]
 682 003e 8A5C     		ldrb	r2, [r1, r2]
 683 0040 1A70     		strb	r2, [r3]
 614:.\Generated_Source\PSoC4/BLE.c ****             for(i = 0; i < CYBLE_GAP_BD_ADDR_SIZE; i++)
 684              		.loc 1 614 0 discriminator 2
 685 0042 3B1C     		mov	r3, r7
 686 0044 0F33     		add	r3, r3, #15
 687 0046 1A78     		ldrb	r2, [r3]
 688 0048 3B1C     		mov	r3, r7
 689 004a 0F33     		add	r3, r3, #15
 690 004c 0132     		add	r2, r2, #1
 691 004e 1A70     		strb	r2, [r3]
 692              	.L35:
ARM GAS  C:\Users\Evan\AppData\Local\Temp\ccsPcayk.s 			page 24


 614:.\Generated_Source\PSoC4/BLE.c ****             for(i = 0; i < CYBLE_GAP_BD_ADDR_SIZE; i++)
 693              		.loc 1 614 0 is_stmt 0 discriminator 1
 694 0050 3B1C     		mov	r3, r7
 695 0052 0F33     		add	r3, r3, #15
 696 0054 1B78     		ldrb	r3, [r3]
 697 0056 052B     		cmp	r3, #5
 698 0058 E7D9     		bls	.L36
 699              	.L33:
 617:.\Generated_Source\PSoC4/BLE.c ****             }
 618:.\Generated_Source\PSoC4/BLE.c ****         }
 619:.\Generated_Source\PSoC4/BLE.c ****     }
 700              		.loc 1 619 0 is_stmt 1
 701 005a BD46     		mov	sp, r7
 702 005c 04B0     		add	sp, sp, #16
 703              		@ sp needed
 704 005e 80BD     		pop	{r7, pc}
 705              		.cfi_endproc
 706              	.LFE9:
 707              		.size	CyBle_ChangeAdDeviceAddress, .-CyBle_ChangeAdDeviceAddress
 708              		.section	.text.CyBle_Get16ByPtr,"ax",%progbits
 709              		.align	2
 710              		.global	CyBle_Get16ByPtr
 711              		.code	16
 712              		.thumb_func
 713              		.type	CyBle_Get16ByPtr, %function
 714              	CyBle_Get16ByPtr:
 715              	.LFB10:
 620:.\Generated_Source\PSoC4/BLE.c ****   
 621:.\Generated_Source\PSoC4/BLE.c **** #endif /* CYBLE_GAP_ROLE_PERIPHERAL || CYBLE_GAP_ROLE_BROADCASTER */
 622:.\Generated_Source\PSoC4/BLE.c **** 
 623:.\Generated_Source\PSoC4/BLE.c **** 
 624:.\Generated_Source\PSoC4/BLE.c **** #if(CYBLE_GAP_ROLE_CENTRAL || CYBLE_GAP_ROLE_OBSERVER)
 625:.\Generated_Source\PSoC4/BLE.c **** 
 626:.\Generated_Source\PSoC4/BLE.c ****     /******************************************************************************
 627:.\Generated_Source\PSoC4/BLE.c ****     ##Function Name: CyBle_GapcStartScan
 628:.\Generated_Source\PSoC4/BLE.c ****     *******************************************************************************
 629:.\Generated_Source\PSoC4/BLE.c ****     
 630:.\Generated_Source\PSoC4/BLE.c ****      Summary:
 631:.\Generated_Source\PSoC4/BLE.c ****       This function is used for discovering GAP peripheral devices that are 
 632:.\Generated_Source\PSoC4/BLE.c ****       available for connection. It performs the scanning routine using the 
 633:.\Generated_Source\PSoC4/BLE.c ****       parameters entered in the component's customizer.
 634:.\Generated_Source\PSoC4/BLE.c ****       
 635:.\Generated_Source\PSoC4/BLE.c ****       As soon as the discovery operation starts, CYBLE_EVT_GAPC_SCAN_START_STOP 
 636:.\Generated_Source\PSoC4/BLE.c ****       event is generated. The CYBLE_EVT_GAPC_SCAN_PROGRESS_RESULT event is 
 637:.\Generated_Source\PSoC4/BLE.c ****       generated when a GAP peripheral device is located. There are three discovery
 638:.\Generated_Source\PSoC4/BLE.c ****       procedures can be selected in the customizer's GUI:
 639:.\Generated_Source\PSoC4/BLE.c ****       
 640:.\Generated_Source\PSoC4/BLE.c ****       * Observation procedure: A device performing the observer role receives only
 641:.\Generated_Source\PSoC4/BLE.c ****                                advertisement data from devices irrespective of 
 642:.\Generated_Source\PSoC4/BLE.c ****                                their discoverable mode settings. Advertisement 
 643:.\Generated_Source\PSoC4/BLE.c ****                                data received is provided by the event,      
 644:.\Generated_Source\PSoC4/BLE.c ****                                CYBLE_EVT_GAPC_SCAN_PROGRESS_RESULT. This procedure
 645:.\Generated_Source\PSoC4/BLE.c ****                                requires the scanType sub parameter to be passive
 646:.\Generated_Source\PSoC4/BLE.c ****                                scanning. 
 647:.\Generated_Source\PSoC4/BLE.c ****       
 648:.\Generated_Source\PSoC4/BLE.c ****       * Limited Discovery procedure: A device performing the limited discovery
 649:.\Generated_Source\PSoC4/BLE.c ****                                      procedure receives advertisement data and 
ARM GAS  C:\Users\Evan\AppData\Local\Temp\ccsPcayk.s 			page 25


 650:.\Generated_Source\PSoC4/BLE.c ****                                      scan# response data from devices in the 
 651:.\Generated_Source\PSoC4/BLE.c ****                                      limited discoverable mode only. Received data
 652:.\Generated_Source\PSoC4/BLE.c ****                                      is provided by the event, 
 653:.\Generated_Source\PSoC4/BLE.c ****                                      CYBLE_EVT_GAPC_SCAN_PROGRESS_RESULT. This 
 654:.\Generated_Source\PSoC4/BLE.c ****                                      procedure requires the scanType sub-parameter 
 655:.\Generated_Source\PSoC4/BLE.c ****                                      to be active scanning.
 656:.\Generated_Source\PSoC4/BLE.c ****       
 657:.\Generated_Source\PSoC4/BLE.c ****       * General Discovery procedure: A device performing the general discovery 
 658:.\Generated_Source\PSoC4/BLE.c ****                                      procedure receives the advertisement data and
 659:.\Generated_Source\PSoC4/BLE.c ****                                      scan response data from devices in both 
 660:.\Generated_Source\PSoC4/BLE.c ****                                      limited discoverable mode and the general 
 661:.\Generated_Source\PSoC4/BLE.c ****                                      discoverable mode. Received data is provided
 662:.\Generated_Source\PSoC4/BLE.c ****                                      by the event,
 663:.\Generated_Source\PSoC4/BLE.c ****                                      CYBLE_EVT_GAPC_SCAN_PROGRESS_RESULT. This 
 664:.\Generated_Source\PSoC4/BLE.c ****                                      procedure requires the scanType sub-parameter
 665:.\Generated_Source\PSoC4/BLE.c ****                                      to be active scanning.
 666:.\Generated_Source\PSoC4/BLE.c ****       
 667:.\Generated_Source\PSoC4/BLE.c ****       Every Advertisement / Scan response packet received results in a new event, 
 668:.\Generated_Source\PSoC4/BLE.c ****       CYBLE_EVT_GAPC_SCAN_PROGRESS_RESULT.
 669:.\Generated_Source\PSoC4/BLE.c ****       If 'scanTo' sub-parameter is a non-zero value, then upon commencement of 
 670:.\Generated_Source\PSoC4/BLE.c ****       discovery procedure and elapsed time = 'scanTo', CYBLE_EVT_TIMEOUT event
 671:.\Generated_Source\PSoC4/BLE.c ****       is generated with the event parameter indicating CYBLE_GAP_SCAN_TO.
 672:.\Generated_Source\PSoC4/BLE.c ****       Possible generated events are:
 673:.\Generated_Source\PSoC4/BLE.c ****       * CYBLE_EVT_GAPC_SCAN_START_STOP: If a device started or stopped scanning. 
 674:.\Generated_Source\PSoC4/BLE.c ****                                         Use CyBle_GetState() to determine the 
 675:.\Generated_Source\PSoC4/BLE.c ****                                         state. Sequential scanning could be 
 676:.\Generated_Source\PSoC4/BLE.c ****                                         started when CYBLE_STATE_DISCONNECTED 
 677:.\Generated_Source\PSoC4/BLE.c ****                                         state is returned. 
 678:.\Generated_Source\PSoC4/BLE.c ****       * CYBLE_EVT_GAPC_SCAN_PROGRESS_RESULT 
 679:.\Generated_Source\PSoC4/BLE.c ****       * CYBLE_EVT_TIMEOUT (CYBLE_GAP_SCAN_TO)
 680:.\Generated_Source\PSoC4/BLE.c ****     
 681:.\Generated_Source\PSoC4/BLE.c ****      Parameters:
 682:.\Generated_Source\PSoC4/BLE.c ****       uint8 scanningIntervalType:  Fast or slow scanning interval with
 683:.\Generated_Source\PSoC4/BLE.c ****           timings entered in Scan settings section of the customiser.
 684:.\Generated_Source\PSoC4/BLE.c ****     	  * CYBLE_SCANNING_FAST   0x00u
 685:.\Generated_Source\PSoC4/BLE.c ****     	  * CYBLE_SCANNING_SLOW   0x01u
 686:.\Generated_Source\PSoC4/BLE.c ****     	  * CYBLE_SCANNING_CUSTOM 0x02u
 687:.\Generated_Source\PSoC4/BLE.c ****     
 688:.\Generated_Source\PSoC4/BLE.c ****     Return:
 689:.\Generated_Source\PSoC4/BLE.c ****      CYBLE_API_RESULT_T : Return value indicates if the function succeeded or
 690:.\Generated_Source\PSoC4/BLE.c ****      failed. Following are the possible error codes.
 691:.\Generated_Source\PSoC4/BLE.c ****      <table>
 692:.\Generated_Source\PSoC4/BLE.c ****       Errors codes                        Values  Description
 693:.\Generated_Source\PSoC4/BLE.c ****       ------------                        ------  -----------
 694:.\Generated_Source\PSoC4/BLE.c ****       CYBLE_ERROR_OK                      0x0000  On successful operation.
 695:.\Generated_Source\PSoC4/BLE.c ****       CYBLE_ERROR_STACK_INTERNAL          0x0003  An error occurred in the 
 696:.\Generated_Source\PSoC4/BLE.c ****                                                    BLE stack.
 697:.\Generated_Source\PSoC4/BLE.c ****      </table>
 698:.\Generated_Source\PSoC4/BLE.c ****      
 699:.\Generated_Source\PSoC4/BLE.c ****     ******************************************************************************/
 700:.\Generated_Source\PSoC4/BLE.c ****     CYBLE_API_RESULT_T CyBle_GapcStartScan(uint8 scanningIntervalType)
 701:.\Generated_Source\PSoC4/BLE.c ****     {
 702:.\Generated_Source\PSoC4/BLE.c ****         CYBLE_API_RESULT_T apiResult;
 703:.\Generated_Source\PSoC4/BLE.c **** 
 704:.\Generated_Source\PSoC4/BLE.c ****         if(scanningIntervalType == CYBLE_SCANNING_FAST)
 705:.\Generated_Source\PSoC4/BLE.c ****         {
 706:.\Generated_Source\PSoC4/BLE.c ****             cyBle_discoveryInfo.scanTo = CYBLE_FAST_SCAN_TIMEOUT;
ARM GAS  C:\Users\Evan\AppData\Local\Temp\ccsPcayk.s 			page 26


 707:.\Generated_Source\PSoC4/BLE.c ****             cyBle_discoveryInfo.scanIntv = CYBLE_FAST_SCAN_INTERVAL;
 708:.\Generated_Source\PSoC4/BLE.c ****             cyBle_discoveryInfo.scanWindow = CYBLE_FAST_SCAN_WINDOW;
 709:.\Generated_Source\PSoC4/BLE.c ****         }
 710:.\Generated_Source\PSoC4/BLE.c ****         else if(scanningIntervalType == CYBLE_SCANNING_SLOW)
 711:.\Generated_Source\PSoC4/BLE.c ****         {
 712:.\Generated_Source\PSoC4/BLE.c ****             cyBle_discoveryInfo.scanTo = CYBLE_SLOW_SCAN_TIMEOUT;
 713:.\Generated_Source\PSoC4/BLE.c ****             cyBle_discoveryInfo.scanIntv = CYBLE_SLOW_SCAN_INTERVAL;
 714:.\Generated_Source\PSoC4/BLE.c ****             cyBle_discoveryInfo.scanWindow = CYBLE_SLOW_SCAN_WINDOW;
 715:.\Generated_Source\PSoC4/BLE.c ****         }       
 716:.\Generated_Source\PSoC4/BLE.c ****         else /* Do not update scanning intervals */
 717:.\Generated_Source\PSoC4/BLE.c ****         {
 718:.\Generated_Source\PSoC4/BLE.c ****         }
 719:.\Generated_Source\PSoC4/BLE.c ****         
 720:.\Generated_Source\PSoC4/BLE.c ****         cyBle_scanningIntervalType = scanningIntervalType;
 721:.\Generated_Source\PSoC4/BLE.c ****         apiResult = CyBle_GapcStartDiscovery(&cyBle_discoveryInfo);
 722:.\Generated_Source\PSoC4/BLE.c ****     
 723:.\Generated_Source\PSoC4/BLE.c ****         if(CYBLE_ERROR_OK == apiResult)
 724:.\Generated_Source\PSoC4/BLE.c ****         {
 725:.\Generated_Source\PSoC4/BLE.c ****             cyBle_eventHandlerFlag |= CYBLE_START_FLAG;
 726:.\Generated_Source\PSoC4/BLE.c ****         }
 727:.\Generated_Source\PSoC4/BLE.c ****        
 728:.\Generated_Source\PSoC4/BLE.c ****         return (apiResult);
 729:.\Generated_Source\PSoC4/BLE.c ****     }
 730:.\Generated_Source\PSoC4/BLE.c ****     
 731:.\Generated_Source\PSoC4/BLE.c ****     
 732:.\Generated_Source\PSoC4/BLE.c ****     /******************************************************************************
 733:.\Generated_Source\PSoC4/BLE.c ****     ##Function Name: CyBle_GapcStopScan
 734:.\Generated_Source\PSoC4/BLE.c ****     *******************************************************************************
 735:.\Generated_Source\PSoC4/BLE.c ****     
 736:.\Generated_Source\PSoC4/BLE.c ****      Summary:
 737:.\Generated_Source\PSoC4/BLE.c ****       This function used to stop the discovery of devices. On stopping discovery
 738:.\Generated_Source\PSoC4/BLE.c ****       operation, CYBLE_EVT_GAPC_SCAN_START_STOP event is generated. Application
 739:.\Generated_Source\PSoC4/BLE.c ****       layer needs to keep track of the function call made before receiving this
 740:.\Generated_Source\PSoC4/BLE.c ****       event to associate this event with either the start or stop discovery
 741:.\Generated_Source\PSoC4/BLE.c ****       function.
 742:.\Generated_Source\PSoC4/BLE.c ****     
 743:.\Generated_Source\PSoC4/BLE.c ****       Possible events generated are:
 744:.\Generated_Source\PSoC4/BLE.c ****        * CYBLE_EVT_GAPC_SCAN_START_STOP
 745:.\Generated_Source\PSoC4/BLE.c ****     
 746:.\Generated_Source\PSoC4/BLE.c ****      Parameters:
 747:.\Generated_Source\PSoC4/BLE.c ****       None
 748:.\Generated_Source\PSoC4/BLE.c ****     
 749:.\Generated_Source\PSoC4/BLE.c ****      Return:
 750:.\Generated_Source\PSoC4/BLE.c ****       None
 751:.\Generated_Source\PSoC4/BLE.c ****     
 752:.\Generated_Source\PSoC4/BLE.c ****     ******************************************************************************/
 753:.\Generated_Source\PSoC4/BLE.c ****     void CyBle_GapcStopScan(void)
 754:.\Generated_Source\PSoC4/BLE.c ****     {
 755:.\Generated_Source\PSoC4/BLE.c ****         CyBle_GapcStopDiscovery();
 756:.\Generated_Source\PSoC4/BLE.c ****         
 757:.\Generated_Source\PSoC4/BLE.c ****         cyBle_eventHandlerFlag |= CYBLE_STOP_FLAG;
 758:.\Generated_Source\PSoC4/BLE.c ****     }
 759:.\Generated_Source\PSoC4/BLE.c **** 
 760:.\Generated_Source\PSoC4/BLE.c ****     
 761:.\Generated_Source\PSoC4/BLE.c **** #endif /* CYBLE_GAP_ROLE_CENTRAL || CYBLE_GAP_ROLE_OBSERVER */
 762:.\Generated_Source\PSoC4/BLE.c **** 
 763:.\Generated_Source\PSoC4/BLE.c **** 
ARM GAS  C:\Users\Evan\AppData\Local\Temp\ccsPcayk.s 			page 27


 764:.\Generated_Source\PSoC4/BLE.c **** #if(CYBLE_GAP_ROLE_CENTRAL)
 765:.\Generated_Source\PSoC4/BLE.c **** 
 766:.\Generated_Source\PSoC4/BLE.c ****     /******************************************************************************
 767:.\Generated_Source\PSoC4/BLE.c ****     ##Function Name: CyBle_GapcConnectDevice
 768:.\Generated_Source\PSoC4/BLE.c ****     *******************************************************************************
 769:.\Generated_Source\PSoC4/BLE.c ****     
 770:.\Generated_Source\PSoC4/BLE.c ****     Summary:
 771:.\Generated_Source\PSoC4/BLE.c ****      This function is used to send a connection request to the remote device with
 772:.\Generated_Source\PSoC4/BLE.c ****      the connection parameters set in the component customizer. This function needs
 773:.\Generated_Source\PSoC4/BLE.c ****      to be called only once after the target device is discovered by 
 774:.\Generated_Source\PSoC4/BLE.c ****      CyBle_GapcStartScan() and further scanning has stopped. Scanning is 
 775:.\Generated_Source\PSoC4/BLE.c ****      successfully stopped on invoking CyBle_GapcStopScan() and then receiving the
 776:.\Generated_Source\PSoC4/BLE.c ****      event CYBLE_EVT_GAPC_SCAN_START_STOP with sub-parameter 'success' = 0x01u.
 777:.\Generated_Source\PSoC4/BLE.c ****      
 778:.\Generated_Source\PSoC4/BLE.c ****      On successful connection, the following events are generated at the GAP 
 779:.\Generated_Source\PSoC4/BLE.c ****      Central device (as well as the GAP Peripheral device), in the following order.
 780:.\Generated_Source\PSoC4/BLE.c ****      * CYBLE_EVT_GATT_CONNECT_IND
 781:.\Generated_Source\PSoC4/BLE.c ****      * CYBLE_EVT_GAP_DEVICE_CONNECTED
 782:.\Generated_Source\PSoC4/BLE.c ****  
 783:.\Generated_Source\PSoC4/BLE.c ****      A procedure is considered to have timed out if a connection response packet is 
 784:.\Generated_Source\PSoC4/BLE.c ****      not received within time set by cyBle_connectingTimeout global variable
 785:.\Generated_Source\PSoC4/BLE.c ****      (30 seconds by default). CYBLE_EVT_TIMEOUT event with CYBLE_GENERIC_TO parameter
 786:.\Generated_Source\PSoC4/BLE.c ****      will indicate about connection procedure timeout. Connection will automatically
 787:.\Generated_Source\PSoC4/BLE.c ****      be cancelled and state will be changed to CYBLE_STATE_DISCONNECTED.
 788:.\Generated_Source\PSoC4/BLE.c ****     
 789:.\Generated_Source\PSoC4/BLE.c ****     Parameters:
 790:.\Generated_Source\PSoC4/BLE.c ****      const CYBLE_GAP_BD_ADDR_T address: The device address of the remote device to 
 791:.\Generated_Source\PSoC4/BLE.c ****                                         connect to. 
 792:.\Generated_Source\PSoC4/BLE.c ****      timeout: Timeout for which timer to be started in seconds.
 793:.\Generated_Source\PSoC4/BLE.c ****  
 794:.\Generated_Source\PSoC4/BLE.c ****     Return:
 795:.\Generated_Source\PSoC4/BLE.c ****      CYBLE_API_RESULT_T : Return value indicates if the function succeeded or 
 796:.\Generated_Source\PSoC4/BLE.c ****      failed. Following are the possible error codes.
 797:.\Generated_Source\PSoC4/BLE.c ****      <table>
 798:.\Generated_Source\PSoC4/BLE.c ****       Errors codes                        Description
 799:.\Generated_Source\PSoC4/BLE.c ****       ------------                        -----------
 800:.\Generated_Source\PSoC4/BLE.c ****       CYBLE_ERROR_OK                      On successful operation.
 801:.\Generated_Source\PSoC4/BLE.c ****       CYBLE_ERROR_STACK_INTERNAL          On error occurred in the 
 802:.\Generated_Source\PSoC4/BLE.c ****                                            BLE stack.
 803:.\Generated_Source\PSoC4/BLE.c ****       CYBLE_ERROR_INVALID_PARAMETER       On specifying NULL as input
 804:.\Generated_Source\PSoC4/BLE.c ****                                            parameter for 'scanInfo' or if
 805:.\Generated_Source\PSoC4/BLE.c ****                                            any element with in 'scanInfo'
 806:.\Generated_Source\PSoC4/BLE.c ****                                            has an invalid value.
 807:.\Generated_Source\PSoC4/BLE.c ****      </table>
 808:.\Generated_Source\PSoC4/BLE.c ****  
 809:.\Generated_Source\PSoC4/BLE.c ****     ******************************************************************************/
 810:.\Generated_Source\PSoC4/BLE.c ****     CYBLE_API_RESULT_T CyBle_GapcConnectDevice(const CYBLE_GAP_BD_ADDR_T * address)
 811:.\Generated_Source\PSoC4/BLE.c ****     {
 812:.\Generated_Source\PSoC4/BLE.c ****         CYBLE_API_RESULT_T apiResult;
 813:.\Generated_Source\PSoC4/BLE.c ****         uint8 i;
 814:.\Generated_Source\PSoC4/BLE.c **** 
 815:.\Generated_Source\PSoC4/BLE.c ****         if(CYBLE_STATE_DISCONNECTED != CyBle_GetState())
 816:.\Generated_Source\PSoC4/BLE.c ****         {
 817:.\Generated_Source\PSoC4/BLE.c ****             apiResult = CYBLE_ERROR_INVALID_STATE;
 818:.\Generated_Source\PSoC4/BLE.c ****         }
 819:.\Generated_Source\PSoC4/BLE.c ****         else if(address == NULL)
 820:.\Generated_Source\PSoC4/BLE.c ****         {
ARM GAS  C:\Users\Evan\AppData\Local\Temp\ccsPcayk.s 			page 28


 821:.\Generated_Source\PSoC4/BLE.c ****             apiResult = CYBLE_ERROR_INVALID_PARAMETER;
 822:.\Generated_Source\PSoC4/BLE.c ****         }
 823:.\Generated_Source\PSoC4/BLE.c ****         else
 824:.\Generated_Source\PSoC4/BLE.c ****         {
 825:.\Generated_Source\PSoC4/BLE.c ****             for(i = 0u; i < CYBLE_GAP_BD_ADDR_SIZE; i++)
 826:.\Generated_Source\PSoC4/BLE.c ****             {
 827:.\Generated_Source\PSoC4/BLE.c ****                 cyBle_connectionParameters.peerBdAddr[i] = address->bdAddr[i];
 828:.\Generated_Source\PSoC4/BLE.c ****             }
 829:.\Generated_Source\PSoC4/BLE.c ****             cyBle_connectionParameters.peerAddrType = address -> type;
 830:.\Generated_Source\PSoC4/BLE.c ****             apiResult = CyBle_GapcInitConnection(&cyBle_connectionParameters);
 831:.\Generated_Source\PSoC4/BLE.c ****             
 832:.\Generated_Source\PSoC4/BLE.c ****             if(CYBLE_ERROR_OK == apiResult)
 833:.\Generated_Source\PSoC4/BLE.c ****             {
 834:.\Generated_Source\PSoC4/BLE.c ****                 CyBle_SetState(CYBLE_STATE_CONNECTING);
 835:.\Generated_Source\PSoC4/BLE.c ****                 if(cyBle_connectingTimeout != 0u)
 836:.\Generated_Source\PSoC4/BLE.c ****                 {
 837:.\Generated_Source\PSoC4/BLE.c ****                     (void)CyBle_StartTimer(cyBle_connectingTimeout);
 838:.\Generated_Source\PSoC4/BLE.c ****                 }
 839:.\Generated_Source\PSoC4/BLE.c ****             }
 840:.\Generated_Source\PSoC4/BLE.c ****         }
 841:.\Generated_Source\PSoC4/BLE.c ****         return (apiResult);
 842:.\Generated_Source\PSoC4/BLE.c ****     }
 843:.\Generated_Source\PSoC4/BLE.c ****     
 844:.\Generated_Source\PSoC4/BLE.c **** 
 845:.\Generated_Source\PSoC4/BLE.c ****     /******************************************************************************
 846:.\Generated_Source\PSoC4/BLE.c ****     ##Function Name: CyBle_GapcCancelDeviceConnection
 847:.\Generated_Source\PSoC4/BLE.c ****     *******************************************************************************
 848:.\Generated_Source\PSoC4/BLE.c ****     
 849:.\Generated_Source\PSoC4/BLE.c ****     Summary:
 850:.\Generated_Source\PSoC4/BLE.c ****      This function cancels a previously initiated connection with the remote 
 851:.\Generated_Source\PSoC4/BLE.c ****      device. It is a blocking function. No event is generated on calling this 
 852:.\Generated_Source\PSoC4/BLE.c ****      function. If the devices are already connected then this function should not
 853:.\Generated_Source\PSoC4/BLE.c ****      be used. If you intend to disconnect from an existing connection, the function
 854:.\Generated_Source\PSoC4/BLE.c ****      CyBle_GapDisconnect() should be used.
 855:.\Generated_Source\PSoC4/BLE.c **** 
 856:.\Generated_Source\PSoC4/BLE.c ****     Parameters:
 857:.\Generated_Source\PSoC4/BLE.c ****      None
 858:.\Generated_Source\PSoC4/BLE.c **** 
 859:.\Generated_Source\PSoC4/BLE.c ****     Return:
 860:.\Generated_Source\PSoC4/BLE.c ****      CYBLE_API_RESULT_T : Return value indicates if the function succeeded or 
 861:.\Generated_Source\PSoC4/BLE.c ****      failed. Following are the possible error codes.
 862:.\Generated_Source\PSoC4/BLE.c ****      <table>
 863:.\Generated_Source\PSoC4/BLE.c ****       Errors codes                        Description
 864:.\Generated_Source\PSoC4/BLE.c ****       ------------                        -----------
 865:.\Generated_Source\PSoC4/BLE.c ****       CYBLE_ERROR_OK                      On successful operation.
 866:.\Generated_Source\PSoC4/BLE.c ****       CYBLE_ERROR_STACK_INTERNAL          An error occurred in the 
 867:.\Generated_Source\PSoC4/BLE.c ****                                            BLE stack.
 868:.\Generated_Source\PSoC4/BLE.c ****       CYBLE_ERROR_INVALID_OPERATION       Device is already connected.
 869:.\Generated_Source\PSoC4/BLE.c ****      </table>
 870:.\Generated_Source\PSoC4/BLE.c ****  
 871:.\Generated_Source\PSoC4/BLE.c ****     ******************************************************************************/
 872:.\Generated_Source\PSoC4/BLE.c ****     CYBLE_API_RESULT_T CyBle_GapcCancelDeviceConnection(void)
 873:.\Generated_Source\PSoC4/BLE.c ****     {
 874:.\Generated_Source\PSoC4/BLE.c ****         CYBLE_API_RESULT_T apiResult;
 875:.\Generated_Source\PSoC4/BLE.c ****         
 876:.\Generated_Source\PSoC4/BLE.c ****         apiResult = CyBle_GapcCancelConnection();
 877:.\Generated_Source\PSoC4/BLE.c ****             
ARM GAS  C:\Users\Evan\AppData\Local\Temp\ccsPcayk.s 			page 29


 878:.\Generated_Source\PSoC4/BLE.c ****         if(cyBle_connectingTimeout != 0u)
 879:.\Generated_Source\PSoC4/BLE.c ****         {
 880:.\Generated_Source\PSoC4/BLE.c ****             (void)CyBle_StopTimer();
 881:.\Generated_Source\PSoC4/BLE.c ****         }
 882:.\Generated_Source\PSoC4/BLE.c **** 
 883:.\Generated_Source\PSoC4/BLE.c ****         if(CYBLE_ERROR_OK == apiResult)
 884:.\Generated_Source\PSoC4/BLE.c ****         {
 885:.\Generated_Source\PSoC4/BLE.c ****             CyBle_SetState(CYBLE_STATE_DISCONNECTED);
 886:.\Generated_Source\PSoC4/BLE.c ****         }
 887:.\Generated_Source\PSoC4/BLE.c ****         return (apiResult);
 888:.\Generated_Source\PSoC4/BLE.c ****     }    
 889:.\Generated_Source\PSoC4/BLE.c **** 
 890:.\Generated_Source\PSoC4/BLE.c ****     
 891:.\Generated_Source\PSoC4/BLE.c **** #endif /* CYBLE_GAP_ROLE_CENTRAL */
 892:.\Generated_Source\PSoC4/BLE.c **** 
 893:.\Generated_Source\PSoC4/BLE.c **** 
 894:.\Generated_Source\PSoC4/BLE.c **** #if(CYBLE_GATT_ROLE_SERVER)
 895:.\Generated_Source\PSoC4/BLE.c **** 
 896:.\Generated_Source\PSoC4/BLE.c **** #if(CYBLE_GAP_ROLE_PERIPHERAL)
 897:.\Generated_Source\PSoC4/BLE.c **** 
 898:.\Generated_Source\PSoC4/BLE.c ****         /******************************************************************************
 899:.\Generated_Source\PSoC4/BLE.c ****         ##Function Name: CyBle_ChangeAdLocalName
 900:.\Generated_Source\PSoC4/BLE.c ****         *******************************************************************************
 901:.\Generated_Source\PSoC4/BLE.c ****         Summary:
 902:.\Generated_Source\PSoC4/BLE.c ****          This API is used to set the local device name in the advertisement or scan 
 903:.\Generated_Source\PSoC4/BLE.c ****          response data structure.
 904:.\Generated_Source\PSoC4/BLE.c **** 
 905:.\Generated_Source\PSoC4/BLE.c ****         Parameters:
 906:.\Generated_Source\PSoC4/BLE.c ****          char8 name: The local device name string to be set in advertisement data 
 907:.\Generated_Source\PSoC4/BLE.c ****                    structure.
 908:.\Generated_Source\PSoC4/BLE.c ****          uint8 dest: 0 - avrevtisement structure, not zero value selects scan response
 909:.\Generated_Source\PSoC4/BLE.c ****                      structure.
 910:.\Generated_Source\PSoC4/BLE.c **** 
 911:.\Generated_Source\PSoC4/BLE.c ****         Return:
 912:.\Generated_Source\PSoC4/BLE.c ****          None
 913:.\Generated_Source\PSoC4/BLE.c ****      
 914:.\Generated_Source\PSoC4/BLE.c ****         ******************************************************************************/
 915:.\Generated_Source\PSoC4/BLE.c ****         static void CyBle_ChangeAdLocalName(const char8 name[], uint8 dest)
 916:.\Generated_Source\PSoC4/BLE.c ****         {
 917:.\Generated_Source\PSoC4/BLE.c ****             uint8 i;
 918:.\Generated_Source\PSoC4/BLE.c ****             uint8 flag = 0u;
 919:.\Generated_Source\PSoC4/BLE.c ****             uint8 adLength = 0u;
 920:.\Generated_Source\PSoC4/BLE.c ****             uint8 byteCounter = 0u;
 921:.\Generated_Source\PSoC4/BLE.c ****             uint8 *destBuffer;
 922:.\Generated_Source\PSoC4/BLE.c ****             uint8 maxLength;
 923:.\Generated_Source\PSoC4/BLE.c ****             
 924:.\Generated_Source\PSoC4/BLE.c ****             if(dest == 0u)      /* Destination - advertising structure */
 925:.\Generated_Source\PSoC4/BLE.c ****             {
 926:.\Generated_Source\PSoC4/BLE.c ****                 destBuffer = cyBle_discoveryData.advData;
 927:.\Generated_Source\PSoC4/BLE.c ****                 maxLength = cyBle_discoveryData.advDataLen;
 928:.\Generated_Source\PSoC4/BLE.c ****             }
 929:.\Generated_Source\PSoC4/BLE.c ****             else                /* Destination - scan response structure */
 930:.\Generated_Source\PSoC4/BLE.c ****             {
 931:.\Generated_Source\PSoC4/BLE.c ****                 destBuffer = cyBle_scanRspData.scanRspData;
 932:.\Generated_Source\PSoC4/BLE.c ****                 maxLength = cyBle_scanRspData.scanRspDataLen;
 933:.\Generated_Source\PSoC4/BLE.c ****             }
 934:.\Generated_Source\PSoC4/BLE.c ****             
ARM GAS  C:\Users\Evan\AppData\Local\Temp\ccsPcayk.s 			page 30


 935:.\Generated_Source\PSoC4/BLE.c ****             while((byteCounter < maxLength) && (0u == flag))
 936:.\Generated_Source\PSoC4/BLE.c ****             {
 937:.\Generated_Source\PSoC4/BLE.c ****                 adLength = destBuffer[byteCounter];
 938:.\Generated_Source\PSoC4/BLE.c ****                 
 939:.\Generated_Source\PSoC4/BLE.c ****                 if(0u != adLength)
 940:.\Generated_Source\PSoC4/BLE.c ****                 {
 941:.\Generated_Source\PSoC4/BLE.c ****                     /* Increment byte counter so it can point to AD type */
 942:.\Generated_Source\PSoC4/BLE.c ****                     byteCounter++;
 943:.\Generated_Source\PSoC4/BLE.c ****                     
 944:.\Generated_Source\PSoC4/BLE.c ****                     if((CYBLE_SHORT_LOCAL_NAME == destBuffer[byteCounter]) || 
 945:.\Generated_Source\PSoC4/BLE.c ****                         (CYBLE_COMPLETE_LOCAL_NAME == destBuffer[byteCounter]))
 946:.\Generated_Source\PSoC4/BLE.c ****                     {
 947:.\Generated_Source\PSoC4/BLE.c ****                         /* Start of the Local Name AD type was fount. Set flag and exit the loop. *
 948:.\Generated_Source\PSoC4/BLE.c ****                         flag = 1u;
 949:.\Generated_Source\PSoC4/BLE.c ****                     }
 950:.\Generated_Source\PSoC4/BLE.c ****                     else
 951:.\Generated_Source\PSoC4/BLE.c ****                     {
 952:.\Generated_Source\PSoC4/BLE.c ****                         byteCounter += adLength;
 953:.\Generated_Source\PSoC4/BLE.c ****                     }
 954:.\Generated_Source\PSoC4/BLE.c ****                 }
 955:.\Generated_Source\PSoC4/BLE.c ****                 else
 956:.\Generated_Source\PSoC4/BLE.c ****                 {
 957:.\Generated_Source\PSoC4/BLE.c ****                     /* The end of advertisement data structure was encountered though exit the 
 958:.\Generated_Source\PSoC4/BLE.c ****                       loop. */
 959:.\Generated_Source\PSoC4/BLE.c ****                     break;
 960:.\Generated_Source\PSoC4/BLE.c ****                 }
 961:.\Generated_Source\PSoC4/BLE.c ****             }
 962:.\Generated_Source\PSoC4/BLE.c ****             
 963:.\Generated_Source\PSoC4/BLE.c ****             if(0u != flag)
 964:.\Generated_Source\PSoC4/BLE.c ****             {
 965:.\Generated_Source\PSoC4/BLE.c ****                 /* Reuse "adLength" to hold location of the last character of local name in 
 966:.\Generated_Source\PSoC4/BLE.c ****                    AD structure. */
 967:.\Generated_Source\PSoC4/BLE.c ****                 adLength += byteCounter;
 968:.\Generated_Source\PSoC4/BLE.c ****                 
 969:.\Generated_Source\PSoC4/BLE.c ****                 /* Increment byte counter to point to start of the local Name string */
 970:.\Generated_Source\PSoC4/BLE.c ****                 byteCounter++;
 971:.\Generated_Source\PSoC4/BLE.c ****                 
 972:.\Generated_Source\PSoC4/BLE.c ****                 for(i = byteCounter; ((i < (adLength)) && (CYBLE_NULL_CHARCTER != name[i - byteCoun
 973:.\Generated_Source\PSoC4/BLE.c ****                 {
 974:.\Generated_Source\PSoC4/BLE.c ****                     destBuffer[i] = (uint8)name[i - byteCounter];
 975:.\Generated_Source\PSoC4/BLE.c ****                 }
 976:.\Generated_Source\PSoC4/BLE.c ****                 
 977:.\Generated_Source\PSoC4/BLE.c ****                 /* This loop handles the case when new local name is shorted than old one.
 978:.\Generated_Source\PSoC4/BLE.c ****                    In this case all remaining characters should be null characters. */
 979:.\Generated_Source\PSoC4/BLE.c ****                 while(adLength > i)
 980:.\Generated_Source\PSoC4/BLE.c ****                 {
 981:.\Generated_Source\PSoC4/BLE.c ****                     /* Terminate string */
 982:.\Generated_Source\PSoC4/BLE.c ****                     destBuffer[i] = (uint8)CYBLE_NULL_CHARCTER;
 983:.\Generated_Source\PSoC4/BLE.c ****                     i++;
 984:.\Generated_Source\PSoC4/BLE.c ****                 }
 985:.\Generated_Source\PSoC4/BLE.c ****             }
 986:.\Generated_Source\PSoC4/BLE.c ****         }
 987:.\Generated_Source\PSoC4/BLE.c ****         
 988:.\Generated_Source\PSoC4/BLE.c **** #endif /* (CYBLE_GAP_ROLE_PERIPHERAL) */  
 989:.\Generated_Source\PSoC4/BLE.c ****     
 990:.\Generated_Source\PSoC4/BLE.c ****     
 991:.\Generated_Source\PSoC4/BLE.c ****     /******************************************************************************
ARM GAS  C:\Users\Evan\AppData\Local\Temp\ccsPcayk.s 			page 31


 992:.\Generated_Source\PSoC4/BLE.c ****     ##Function Name: CyBle_GapSetLocalName
 993:.\Generated_Source\PSoC4/BLE.c ****     *******************************************************************************
 994:.\Generated_Source\PSoC4/BLE.c ****     Summary:
 995:.\Generated_Source\PSoC4/BLE.c ****      This API is used to set the local device name - a Characteristic of the 
 996:.\Generated_Source\PSoC4/BLE.c ****      GAP Service. If the characteristic length entered in the component customizer
 997:.\Generated_Source\PSoC4/BLE.c ****      is shorter than the string specified by the "name" parameter, the local device
 998:.\Generated_Source\PSoC4/BLE.c ****      name will be cut to the length specified in the customizer.
 999:.\Generated_Source\PSoC4/BLE.c **** 
1000:.\Generated_Source\PSoC4/BLE.c ****     Parameters:
1001:.\Generated_Source\PSoC4/BLE.c ****      char8 name: The local device name string. The name string to be written as
1002:.\Generated_Source\PSoC4/BLE.c ****                  the local device name. It represents a UTF-8 encoded User
1003:.\Generated_Source\PSoC4/BLE.c ****                  Friendly Descriptive Name for the device. The length of the local
1004:.\Generated_Source\PSoC4/BLE.c ****                  device string is entered into the component customizer and it can
1005:.\Generated_Source\PSoC4/BLE.c ****                  be set to a value from 0 to 248 bytes. If the name contained in
1006:.\Generated_Source\PSoC4/BLE.c ****                  the parameter is shorter than the length from the customizer, the
1007:.\Generated_Source\PSoC4/BLE.c ****                  end of the name is indicated by a NULL octet (0x00).
1008:.\Generated_Source\PSoC4/BLE.c **** 
1009:.\Generated_Source\PSoC4/BLE.c ****     Return:
1010:.\Generated_Source\PSoC4/BLE.c ****      CYBLE_API_RESULT_T : Return value indicates if the function succeeded or 
1011:.\Generated_Source\PSoC4/BLE.c ****      failed. Following are the possible error codes.
1012:.\Generated_Source\PSoC4/BLE.c ****      <table>
1013:.\Generated_Source\PSoC4/BLE.c ****       Errors codes                        Description
1014:.\Generated_Source\PSoC4/BLE.c ****       ------------                        -----------
1015:.\Generated_Source\PSoC4/BLE.c ****       CYBLE_ERROR_OK                      Function completed successfully.
1016:.\Generated_Source\PSoC4/BLE.c ****       CYBLE_ERROR_INVALID_PARAMETER       On specifying NULL as input parameter
1017:.\Generated_Source\PSoC4/BLE.c ****      </table>
1018:.\Generated_Source\PSoC4/BLE.c ****  
1019:.\Generated_Source\PSoC4/BLE.c ****     ******************************************************************************/
1020:.\Generated_Source\PSoC4/BLE.c ****     CYBLE_API_RESULT_T CyBle_GapSetLocalName(const char8 name[])
1021:.\Generated_Source\PSoC4/BLE.c ****     {
1022:.\Generated_Source\PSoC4/BLE.c ****         CYBLE_API_RESULT_T apiResult = CYBLE_ERROR_OK;
1023:.\Generated_Source\PSoC4/BLE.c ****         uint8 i;
1024:.\Generated_Source\PSoC4/BLE.c ****         char8 *ptr;
1025:.\Generated_Source\PSoC4/BLE.c ****         uint8 charLen;
1026:.\Generated_Source\PSoC4/BLE.c **** 
1027:.\Generated_Source\PSoC4/BLE.c ****         if(NULL != name)
1028:.\Generated_Source\PSoC4/BLE.c ****         {
1029:.\Generated_Source\PSoC4/BLE.c ****             /* Get the pointer to the Device Name characteristic  */
1030:.\Generated_Source\PSoC4/BLE.c ****             ptr = (char8 *)
1031:.\Generated_Source\PSoC4/BLE.c ****                 cyBle_gattDB[CYBLE_GAP_DEVICE_NAME_INDEX].attValue.attFormatValue.attGenericVal;
1032:.\Generated_Source\PSoC4/BLE.c **** 
1033:.\Generated_Source\PSoC4/BLE.c ****             /* First need to get the length of the characteristic data in the GATT
1034:.\Generated_Source\PSoC4/BLE.c ****                 database to make sure there is enough place for the data. The length
1035:.\Generated_Source\PSoC4/BLE.c ****                 can't be longer than 248, so only the LSB of 16 bit of length is to
1036:.\Generated_Source\PSoC4/BLE.c ****                 be used. */
1037:.\Generated_Source\PSoC4/BLE.c ****             charLen = (uint8) cyBle_gattDB[CYBLE_GAP_DEVICE_NAME_INDEX].attValue.attFormatValue.len
1038:.\Generated_Source\PSoC4/BLE.c **** 
1039:.\Generated_Source\PSoC4/BLE.c ****             /* Copy name into characteristic */
1040:.\Generated_Source\PSoC4/BLE.c ****             for(i = 0u; ((i < (charLen - 1u)) && (CYBLE_NULL_CHARCTER != name[i])); i++)
1041:.\Generated_Source\PSoC4/BLE.c ****             {
1042:.\Generated_Source\PSoC4/BLE.c ****                 ptr[i] = name[i];
1043:.\Generated_Source\PSoC4/BLE.c ****             }
1044:.\Generated_Source\PSoC4/BLE.c **** 
1045:.\Generated_Source\PSoC4/BLE.c ****             /* Terminate string */
1046:.\Generated_Source\PSoC4/BLE.c ****             ptr[i] = CYBLE_NULL_CHARCTER;
1047:.\Generated_Source\PSoC4/BLE.c ****             
1048:.\Generated_Source\PSoC4/BLE.c ****             /* Update device name in advertising and scan response structure */
ARM GAS  C:\Users\Evan\AppData\Local\Temp\ccsPcayk.s 			page 32


1049:.\Generated_Source\PSoC4/BLE.c ****             #if(CYBLE_GAP_ROLE_PERIPHERAL)
1050:.\Generated_Source\PSoC4/BLE.c ****                 CyBle_ChangeAdLocalName(name, 0u);
1051:.\Generated_Source\PSoC4/BLE.c ****                 CyBle_ChangeAdLocalName(name, 1u);
1052:.\Generated_Source\PSoC4/BLE.c ****             #endif /* (CYBLE_GAP_ROLE_PERIPHERAL) */
1053:.\Generated_Source\PSoC4/BLE.c ****         }
1054:.\Generated_Source\PSoC4/BLE.c ****         else
1055:.\Generated_Source\PSoC4/BLE.c ****         {
1056:.\Generated_Source\PSoC4/BLE.c ****             apiResult = CYBLE_ERROR_INVALID_PARAMETER;
1057:.\Generated_Source\PSoC4/BLE.c ****         }
1058:.\Generated_Source\PSoC4/BLE.c ****         
1059:.\Generated_Source\PSoC4/BLE.c ****         return(apiResult);
1060:.\Generated_Source\PSoC4/BLE.c ****     }
1061:.\Generated_Source\PSoC4/BLE.c **** 
1062:.\Generated_Source\PSoC4/BLE.c **** 
1063:.\Generated_Source\PSoC4/BLE.c ****     /******************************************************************************
1064:.\Generated_Source\PSoC4/BLE.c ****     ##Function Name: CyBle_GapGetLocalName
1065:.\Generated_Source\PSoC4/BLE.c ****     *******************************************************************************
1066:.\Generated_Source\PSoC4/BLE.c ****  
1067:.\Generated_Source\PSoC4/BLE.c ****     Summary:
1068:.\Generated_Source\PSoC4/BLE.c ****      This API is used to read the local device name - a Characteristic of the 
1069:.\Generated_Source\PSoC4/BLE.c ****      GAP Service.
1070:.\Generated_Source\PSoC4/BLE.c **** 
1071:.\Generated_Source\PSoC4/BLE.c ****     Parameters:
1072:.\Generated_Source\PSoC4/BLE.c ****     char8 name: The local device name string. Used to read the local name to the
1073:.\Generated_Source\PSoC4/BLE.c ****                 given string array. It represents a UTF-8 encoded User Friendly 
1074:.\Generated_Source\PSoC4/BLE.c ****                 Descriptive Name for the device. The length of the local device
1075:.\Generated_Source\PSoC4/BLE.c ****                 string is entered into the component customizer and it can be set
1076:.\Generated_Source\PSoC4/BLE.c ****                 to a value from 0 to 248 bytes. If the name contained in the
1077:.\Generated_Source\PSoC4/BLE.c ****                 parameter is shorter than the length from the customizer, the end
1078:.\Generated_Source\PSoC4/BLE.c ****                 of the name is indicated by a NULL octet (0x00).
1079:.\Generated_Source\PSoC4/BLE.c **** 
1080:.\Generated_Source\PSoC4/BLE.c ****     Return:
1081:.\Generated_Source\PSoC4/BLE.c ****      CYBLE_API_RESULT_T : Return value indicates if the function succeeded or 
1082:.\Generated_Source\PSoC4/BLE.c ****      failed. Following are the possible error codes.
1083:.\Generated_Source\PSoC4/BLE.c ****      <table>
1084:.\Generated_Source\PSoC4/BLE.c ****       Errors codes                        Description
1085:.\Generated_Source\PSoC4/BLE.c ****       ------------                        -----------
1086:.\Generated_Source\PSoC4/BLE.c ****       CYBLE_ERROR_OK                      Function completed successfully.
1087:.\Generated_Source\PSoC4/BLE.c ****       CYBLE_ERROR_INVALID_PARAMETER       On specifying NULL as input parameter
1088:.\Generated_Source\PSoC4/BLE.c ****      </table>
1089:.\Generated_Source\PSoC4/BLE.c **** 
1090:.\Generated_Source\PSoC4/BLE.c ****     ******************************************************************************/
1091:.\Generated_Source\PSoC4/BLE.c ****     CYBLE_API_RESULT_T CyBle_GapGetLocalName(char8 name[])
1092:.\Generated_Source\PSoC4/BLE.c ****     {
1093:.\Generated_Source\PSoC4/BLE.c ****         CYBLE_API_RESULT_T apiResult = CYBLE_ERROR_OK;
1094:.\Generated_Source\PSoC4/BLE.c ****         uint8 charLen;
1095:.\Generated_Source\PSoC4/BLE.c ****         uint8 i;
1096:.\Generated_Source\PSoC4/BLE.c ****         char8 *ptr;
1097:.\Generated_Source\PSoC4/BLE.c **** 
1098:.\Generated_Source\PSoC4/BLE.c ****         if(NULL != name)
1099:.\Generated_Source\PSoC4/BLE.c ****         {
1100:.\Generated_Source\PSoC4/BLE.c ****             /* Get the pointer to the Device Name characteristic  */
1101:.\Generated_Source\PSoC4/BLE.c ****             ptr = (char8 *) cyBle_gattDB[CYBLE_GAP_DEVICE_NAME_INDEX].attValue.attFormatValue.attGe
1102:.\Generated_Source\PSoC4/BLE.c **** 
1103:.\Generated_Source\PSoC4/BLE.c ****             /* First need to get the length of the characteristic data in the GATT
1104:.\Generated_Source\PSoC4/BLE.c ****                 database to make sure there is enough place for the data. The length
1105:.\Generated_Source\PSoC4/BLE.c ****                 can't be longer than 248, so only the LSB of 16 bit of length is to
ARM GAS  C:\Users\Evan\AppData\Local\Temp\ccsPcayk.s 			page 33


1106:.\Generated_Source\PSoC4/BLE.c ****                 be used. */
1107:.\Generated_Source\PSoC4/BLE.c ****             charLen = (uint8)cyBle_gattDB[CYBLE_GAP_DEVICE_NAME_INDEX].attValue.attFormatValue.leng
1108:.\Generated_Source\PSoC4/BLE.c **** 
1109:.\Generated_Source\PSoC4/BLE.c ****             /* Copy name from characteristic */
1110:.\Generated_Source\PSoC4/BLE.c ****             for(i = 0u; ((i < (charLen - 1u)) && (CYBLE_NULL_CHARCTER != ptr[i])); i++)
1111:.\Generated_Source\PSoC4/BLE.c ****             {
1112:.\Generated_Source\PSoC4/BLE.c ****                 name[i] = ptr[i];
1113:.\Generated_Source\PSoC4/BLE.c ****             }
1114:.\Generated_Source\PSoC4/BLE.c **** 
1115:.\Generated_Source\PSoC4/BLE.c ****             /* Terminate string */
1116:.\Generated_Source\PSoC4/BLE.c ****             name[i] = CYBLE_NULL_CHARCTER;
1117:.\Generated_Source\PSoC4/BLE.c ****         }
1118:.\Generated_Source\PSoC4/BLE.c ****         else
1119:.\Generated_Source\PSoC4/BLE.c ****         {
1120:.\Generated_Source\PSoC4/BLE.c ****             apiResult = CYBLE_ERROR_INVALID_PARAMETER;
1121:.\Generated_Source\PSoC4/BLE.c ****         }
1122:.\Generated_Source\PSoC4/BLE.c ****         
1123:.\Generated_Source\PSoC4/BLE.c ****         return(apiResult);
1124:.\Generated_Source\PSoC4/BLE.c ****     }
1125:.\Generated_Source\PSoC4/BLE.c **** 
1126:.\Generated_Source\PSoC4/BLE.c **** #endif /* (CYBLE_GATT_ROLE_SERVER) */
1127:.\Generated_Source\PSoC4/BLE.c **** 
1128:.\Generated_Source\PSoC4/BLE.c **** 
1129:.\Generated_Source\PSoC4/BLE.c **** /******************************************************************************
1130:.\Generated_Source\PSoC4/BLE.c **** ##Function Name: CyBle_Get16ByPtr
1131:.\Generated_Source\PSoC4/BLE.c **** *******************************************************************************
1132:.\Generated_Source\PSoC4/BLE.c **** 
1133:.\Generated_Source\PSoC4/BLE.c **** Summary:
1134:.\Generated_Source\PSoC4/BLE.c ****  Returns the two-bytes value by using a pointer to the LSB.
1135:.\Generated_Source\PSoC4/BLE.c **** 
1136:.\Generated_Source\PSoC4/BLE.c **** Parameters:
1137:.\Generated_Source\PSoC4/BLE.c ****  uint8 * ptr: Pointer to the LSB of two-bytes data (little endian).
1138:.\Generated_Source\PSoC4/BLE.c **** 
1139:.\Generated_Source\PSoC4/BLE.c **** Return:
1140:.\Generated_Source\PSoC4/BLE.c ****  uint16 value: Two-bytes data.
1141:.\Generated_Source\PSoC4/BLE.c **** 
1142:.\Generated_Source\PSoC4/BLE.c **** ******************************************************************************/
1143:.\Generated_Source\PSoC4/BLE.c **** uint16 CyBle_Get16ByPtr(const uint8 ptr[])
1144:.\Generated_Source\PSoC4/BLE.c **** {
 716              		.loc 1 1144 0
 717              		.cfi_startproc
 718 0000 80B5     		push	{r7, lr}
 719              		.cfi_def_cfa_offset 8
 720              		.cfi_offset 7, -8
 721              		.cfi_offset 14, -4
 722 0002 82B0     		sub	sp, sp, #8
 723              		.cfi_def_cfa_offset 16
 724 0004 00AF     		add	r7, sp, #0
 725              		.cfi_def_cfa_register 7
 726 0006 7860     		str	r0, [r7, #4]
1145:.\Generated_Source\PSoC4/BLE.c ****     return ((uint16) ptr[0u] | ((uint16) (((uint16) ptr[1u]) << 8u)));
 727              		.loc 1 1145 0
 728 0008 7B68     		ldr	r3, [r7, #4]
 729 000a 1B78     		ldrb	r3, [r3]
 730 000c 1A1C     		mov	r2, r3
 731 000e 7B68     		ldr	r3, [r7, #4]
 732 0010 0133     		add	r3, r3, #1
ARM GAS  C:\Users\Evan\AppData\Local\Temp\ccsPcayk.s 			page 34


 733 0012 1B78     		ldrb	r3, [r3]
 734 0014 1B02     		lsl	r3, r3, #8
 735 0016 9BB2     		uxth	r3, r3
 736 0018 1343     		orr	r3, r2
 737 001a 9BB2     		uxth	r3, r3
1146:.\Generated_Source\PSoC4/BLE.c **** }
 738              		.loc 1 1146 0
 739 001c 181C     		mov	r0, r3
 740 001e BD46     		mov	sp, r7
 741 0020 02B0     		add	sp, sp, #8
 742              		@ sp needed
 743 0022 80BD     		pop	{r7, pc}
 744              		.cfi_endproc
 745              	.LFE10:
 746              		.size	CyBle_Get16ByPtr, .-CyBle_Get16ByPtr
 747              		.section	.text.CyBle_Set16ByPtr,"ax",%progbits
 748              		.align	2
 749              		.global	CyBle_Set16ByPtr
 750              		.code	16
 751              		.thumb_func
 752              		.type	CyBle_Set16ByPtr, %function
 753              	CyBle_Set16ByPtr:
 754              	.LFB11:
1147:.\Generated_Source\PSoC4/BLE.c **** 
1148:.\Generated_Source\PSoC4/BLE.c **** 
1149:.\Generated_Source\PSoC4/BLE.c **** /******************************************************************************
1150:.\Generated_Source\PSoC4/BLE.c **** ##Function Name: CyBle_Set16ByPtr
1151:.\Generated_Source\PSoC4/BLE.c **** *******************************************************************************
1152:.\Generated_Source\PSoC4/BLE.c **** 
1153:.\Generated_Source\PSoC4/BLE.c **** Summary:
1154:.\Generated_Source\PSoC4/BLE.c ****  Sets the two-bytes value by using a pointer to the LSB.
1155:.\Generated_Source\PSoC4/BLE.c **** 
1156:.\Generated_Source\PSoC4/BLE.c **** Parameters:
1157:.\Generated_Source\PSoC4/BLE.c ****  uint8 * ptr:   Pointer to the LSB of two-bytes data (little endian).
1158:.\Generated_Source\PSoC4/BLE.c ****  uint16 value:  Two-bytes data to be written.
1159:.\Generated_Source\PSoC4/BLE.c **** 
1160:.\Generated_Source\PSoC4/BLE.c **** Return:
1161:.\Generated_Source\PSoC4/BLE.c ****  None
1162:.\Generated_Source\PSoC4/BLE.c **** 
1163:.\Generated_Source\PSoC4/BLE.c **** ******************************************************************************/
1164:.\Generated_Source\PSoC4/BLE.c **** void CyBle_Set16ByPtr(uint8 ptr[], uint16 value)
1165:.\Generated_Source\PSoC4/BLE.c **** {
 755              		.loc 1 1165 0
 756              		.cfi_startproc
 757 0000 80B5     		push	{r7, lr}
 758              		.cfi_def_cfa_offset 8
 759              		.cfi_offset 7, -8
 760              		.cfi_offset 14, -4
 761 0002 82B0     		sub	sp, sp, #8
 762              		.cfi_def_cfa_offset 16
 763 0004 00AF     		add	r7, sp, #0
 764              		.cfi_def_cfa_register 7
 765 0006 7860     		str	r0, [r7, #4]
 766 0008 0A1C     		mov	r2, r1
 767 000a BB1C     		add	r3, r7, #2
 768 000c 1A80     		strh	r2, [r3]
1166:.\Generated_Source\PSoC4/BLE.c ****     ptr[0u] = (uint8) value;
ARM GAS  C:\Users\Evan\AppData\Local\Temp\ccsPcayk.s 			page 35


 769              		.loc 1 1166 0
 770 000e BB1C     		add	r3, r7, #2
 771 0010 1B88     		ldrh	r3, [r3]
 772 0012 DAB2     		uxtb	r2, r3
 773 0014 7B68     		ldr	r3, [r7, #4]
 774 0016 1A70     		strb	r2, [r3]
1167:.\Generated_Source\PSoC4/BLE.c ****     ptr[1u] = (uint8) (value >> 8u);
 775              		.loc 1 1167 0
 776 0018 7B68     		ldr	r3, [r7, #4]
 777 001a 0133     		add	r3, r3, #1
 778 001c BA1C     		add	r2, r7, #2
 779 001e 1288     		ldrh	r2, [r2]
 780 0020 120A     		lsr	r2, r2, #8
 781 0022 92B2     		uxth	r2, r2
 782 0024 D2B2     		uxtb	r2, r2
 783 0026 1A70     		strb	r2, [r3]
1168:.\Generated_Source\PSoC4/BLE.c **** }
 784              		.loc 1 1168 0
 785 0028 BD46     		mov	sp, r7
 786 002a 02B0     		add	sp, sp, #8
 787              		@ sp needed
 788 002c 80BD     		pop	{r7, pc}
 789              		.cfi_endproc
 790              	.LFE11:
 791              		.size	CyBle_Set16ByPtr, .-CyBle_Set16ByPtr
 792 002e C046     		.bss
 793 0001 00000000 		.align	3
 793      000000
 794              	cyBle_stackMemoryRam.6034:
 795 0008 00000000 		.space	3276
 795      00000000 
 795      00000000 
 795      00000000 
 795      00000000 
 796 0cd4 00000000 		.text
 797              	.Letext0:
 798              		.file 2 ".\\Generated_Source\\PSoC4\\cytypes.h"
 799              		.file 3 ".\\Generated_Source\\PSoC4\\BLE_Stack.h"
 800              		.file 4 ".\\Generated_Source\\PSoC4\\BLE_StackGap.h"
 801              		.file 5 ".\\Generated_Source\\PSoC4\\BLE_StackGatt.h"
 802              		.file 6 ".\\Generated_Source\\PSoC4\\BLE.h"
 803              		.file 7 ".\\Generated_Source\\PSoC4\\BLE_gatt.h"
 804              		.file 8 ".\\Generated_Source\\PSoC4\\BLE_eventHandler.h"