ARM GAS  C:\Users\Evan\AppData\Local\Temp\ccqKGvbt.s 			page 1


   1              		.cpu cortex-m0
   2              		.fpu softvfp
   3              		.eabi_attribute 20, 1
   4              		.eabi_attribute 21, 1
   5              		.eabi_attribute 23, 3
   6              		.eabi_attribute 24, 1
   7              		.eabi_attribute 25, 1
   8              		.eabi_attribute 26, 1
   9              		.eabi_attribute 30, 6
  10              		.eabi_attribute 34, 0
  11              		.eabi_attribute 18, 4
  12              		.code	16
  13              		.file	"BLE_gatt.c"
  14              		.text
  15              	.Ltext0:
  16              		.cfi_sections	.debug_frame
  17              		.comm	cyBle_state,1,1
  18              		.comm	cyBle_clientState,1,1
  19              		.comm	cyBle_gattc,6,4
  20              		.section	.text.CyBle_GattcStartDiscovery,"ax",%progbits
  21              		.align	2
  22              		.global	CyBle_GattcStartDiscovery
  23              		.code	16
  24              		.thumb_func
  25              		.type	CyBle_GattcStartDiscovery, %function
  26              	CyBle_GattcStartDiscovery:
  27              	.LFB2:
  28              		.file 1 ".\\Generated_Source\\PSoC4\\BLE_gatt.c"
   1:.\Generated_Source\PSoC4/BLE_gatt.c **** /*******************************************************************************
   2:.\Generated_Source\PSoC4/BLE_gatt.c **** File Name: CYBLE_gatt.c
   3:.\Generated_Source\PSoC4/BLE_gatt.c **** Version 1.20
   4:.\Generated_Source\PSoC4/BLE_gatt.c **** 
   5:.\Generated_Source\PSoC4/BLE_gatt.c **** Description:
   6:.\Generated_Source\PSoC4/BLE_gatt.c ****  This file contains the source code for the GATT API of the BLE Component.
   7:.\Generated_Source\PSoC4/BLE_gatt.c **** 
   8:.\Generated_Source\PSoC4/BLE_gatt.c **** ********************************************************************************
   9:.\Generated_Source\PSoC4/BLE_gatt.c **** Copyright 2014-2015, Cypress Semiconductor Corporation.  All rights reserved.
  10:.\Generated_Source\PSoC4/BLE_gatt.c **** You may use this file only in accordance with the license, terms, conditions,
  11:.\Generated_Source\PSoC4/BLE_gatt.c **** disclaimers, and limitations in the end user license agreement accompanying
  12:.\Generated_Source\PSoC4/BLE_gatt.c **** the software package with which this file was provided.
  13:.\Generated_Source\PSoC4/BLE_gatt.c **** *******************************************************************************/
  14:.\Generated_Source\PSoC4/BLE_gatt.c **** 
  15:.\Generated_Source\PSoC4/BLE_gatt.c **** 
  16:.\Generated_Source\PSoC4/BLE_gatt.c **** #include "BLE_eventHandler.h"
  17:.\Generated_Source\PSoC4/BLE_gatt.c **** 
  18:.\Generated_Source\PSoC4/BLE_gatt.c **** 
  19:.\Generated_Source\PSoC4/BLE_gatt.c **** /***************************************
  20:.\Generated_Source\PSoC4/BLE_gatt.c **** ##Global variables
  21:.\Generated_Source\PSoC4/BLE_gatt.c **** ***************************************/
  22:.\Generated_Source\PSoC4/BLE_gatt.c **** 
  23:.\Generated_Source\PSoC4/BLE_gatt.c **** CYBLE_STATE_T cyBle_state;
  24:.\Generated_Source\PSoC4/BLE_gatt.c **** 
  25:.\Generated_Source\PSoC4/BLE_gatt.c **** 
  26:.\Generated_Source\PSoC4/BLE_gatt.c **** #if(CYBLE_GATT_ROLE_SERVER)
  27:.\Generated_Source\PSoC4/BLE_gatt.c ****     
  28:.\Generated_Source\PSoC4/BLE_gatt.c ****     
  29:.\Generated_Source\PSoC4/BLE_gatt.c ****     
ARM GAS  C:\Users\Evan\AppData\Local\Temp\ccqKGvbt.s 			page 2


  30:.\Generated_Source\PSoC4/BLE_gatt.c ****     
  31:.\Generated_Source\PSoC4/BLE_gatt.c **** 
  32:.\Generated_Source\PSoC4/BLE_gatt.c **** 
  33:.\Generated_Source\PSoC4/BLE_gatt.c **** 
  34:.\Generated_Source\PSoC4/BLE_gatt.c **** 
  35:.\Generated_Source\PSoC4/BLE_gatt.c **** #endif /* (CYBLE_GATT_ROLE_SERVER) */
  36:.\Generated_Source\PSoC4/BLE_gatt.c **** 
  37:.\Generated_Source\PSoC4/BLE_gatt.c **** #if(CYBLE_GATT_ROLE_CLIENT)
  38:.\Generated_Source\PSoC4/BLE_gatt.c ****     
  39:.\Generated_Source\PSoC4/BLE_gatt.c **** CYBLE_CLIENT_STATE_T cyBle_clientState;
  40:.\Generated_Source\PSoC4/BLE_gatt.c **** CYBLE_GATTC_T cyBle_gattc;
  41:.\Generated_Source\PSoC4/BLE_gatt.c ****     
  42:.\Generated_Source\PSoC4/BLE_gatt.c **** #endif /* (CYBLE_GATT_ROLE_CLIENT) */
  43:.\Generated_Source\PSoC4/BLE_gatt.c **** 
  44:.\Generated_Source\PSoC4/BLE_gatt.c **** 
  45:.\Generated_Source\PSoC4/BLE_gatt.c **** #if(CYBLE_GATT_ROLE_SERVER)
  46:.\Generated_Source\PSoC4/BLE_gatt.c **** 
  47:.\Generated_Source\PSoC4/BLE_gatt.c **** /****************************************************************************** 
  48:.\Generated_Source\PSoC4/BLE_gatt.c **** ##Function Name: CyBle_GattsReInitGattDb
  49:.\Generated_Source\PSoC4/BLE_gatt.c **** *******************************************************************************
  50:.\Generated_Source\PSoC4/BLE_gatt.c **** 
  51:.\Generated_Source\PSoC4/BLE_gatt.c **** Summary:
  52:.\Generated_Source\PSoC4/BLE_gatt.c ****  Reinitializes the GATT database.
  53:.\Generated_Source\PSoC4/BLE_gatt.c **** 
  54:.\Generated_Source\PSoC4/BLE_gatt.c **** Parameters:
  55:.\Generated_Source\PSoC4/BLE_gatt.c ****  None
  56:.\Generated_Source\PSoC4/BLE_gatt.c **** 
  57:.\Generated_Source\PSoC4/BLE_gatt.c **** Return:
  58:.\Generated_Source\PSoC4/BLE_gatt.c ****  CYBLE_API_RESULT_T: An API result states if the API succeeded or failed with
  59:.\Generated_Source\PSoC4/BLE_gatt.c ****  error codes:
  60:.\Generated_Source\PSoC4/BLE_gatt.c ****   * CYBLE_ERROR_OK: GATT database was reinitialized successfully
  61:.\Generated_Source\PSoC4/BLE_gatt.c ****   * CYBLE_ERROR_INVALID_STATE: If the function is called in any state except
  62:.\Generated_Source\PSoC4/BLE_gatt.c ****                                 CYBLE_STATE_DISCONNECTED.
  63:.\Generated_Source\PSoC4/BLE_gatt.c ****   * Any of the CyBle_GattsDbRegister() stack API function return values.
  64:.\Generated_Source\PSoC4/BLE_gatt.c **** 
  65:.\Generated_Source\PSoC4/BLE_gatt.c **** ******************************************************************************/
  66:.\Generated_Source\PSoC4/BLE_gatt.c **** CYBLE_API_RESULT_T CyBle_GattsReInitGattDb(void)
  67:.\Generated_Source\PSoC4/BLE_gatt.c **** {
  68:.\Generated_Source\PSoC4/BLE_gatt.c ****     CYBLE_API_RESULT_T apiResult;
  69:.\Generated_Source\PSoC4/BLE_gatt.c ****     
  70:.\Generated_Source\PSoC4/BLE_gatt.c ****     if(CYBLE_STATE_DISCONNECTED == CyBle_GetState())
  71:.\Generated_Source\PSoC4/BLE_gatt.c ****     {
  72:.\Generated_Source\PSoC4/BLE_gatt.c ****         apiResult = CyBle_GattsDbRegister(cyBle_gattDB, CYBLE_GATT_DB_INDEX_COUNT, CYBLE_GATT_DB_MA
  73:.\Generated_Source\PSoC4/BLE_gatt.c ****     }
  74:.\Generated_Source\PSoC4/BLE_gatt.c ****     else
  75:.\Generated_Source\PSoC4/BLE_gatt.c ****     {
  76:.\Generated_Source\PSoC4/BLE_gatt.c ****         apiResult = CYBLE_ERROR_INVALID_STATE;
  77:.\Generated_Source\PSoC4/BLE_gatt.c ****     }
  78:.\Generated_Source\PSoC4/BLE_gatt.c ****     
  79:.\Generated_Source\PSoC4/BLE_gatt.c ****     return(apiResult);
  80:.\Generated_Source\PSoC4/BLE_gatt.c **** }
  81:.\Generated_Source\PSoC4/BLE_gatt.c **** 
  82:.\Generated_Source\PSoC4/BLE_gatt.c **** 
  83:.\Generated_Source\PSoC4/BLE_gatt.c **** /****************************************************************************** 
  84:.\Generated_Source\PSoC4/BLE_gatt.c **** ##Function Name: CyBle_GattsWriteEventHandler
  85:.\Generated_Source\PSoC4/BLE_gatt.c **** *******************************************************************************
  86:.\Generated_Source\PSoC4/BLE_gatt.c **** 
ARM GAS  C:\Users\Evan\AppData\Local\Temp\ccqKGvbt.s 			page 3


  87:.\Generated_Source\PSoC4/BLE_gatt.c **** Summary:
  88:.\Generated_Source\PSoC4/BLE_gatt.c ****  Handles the Write Request Event for GATT service.
  89:.\Generated_Source\PSoC4/BLE_gatt.c **** 
  90:.\Generated_Source\PSoC4/BLE_gatt.c **** Parameters:
  91:.\Generated_Source\PSoC4/BLE_gatt.c ****  *eventParam: The pointer to the data structure specified by the event.
  92:.\Generated_Source\PSoC4/BLE_gatt.c **** 
  93:.\Generated_Source\PSoC4/BLE_gatt.c **** Return:
  94:.\Generated_Source\PSoC4/BLE_gatt.c ****  * CYBLE_GATT_ERR_CODE_T: An API result returns one of the following status 
  95:.\Generated_Source\PSoC4/BLE_gatt.c ****     values
  96:.\Generated_Source\PSoC4/BLE_gatt.c ****  * CYBLE_GATT_ERR_NONE - Write is successful.
  97:.\Generated_Source\PSoC4/BLE_gatt.c **** 
  98:.\Generated_Source\PSoC4/BLE_gatt.c **** ******************************************************************************/
  99:.\Generated_Source\PSoC4/BLE_gatt.c **** CYBLE_GATT_ERR_CODE_T CyBle_GattsWriteEventHandler(CYBLE_GATTS_WRITE_REQ_PARAM_T *eventParam)
 100:.\Generated_Source\PSoC4/BLE_gatt.c **** {
 101:.\Generated_Source\PSoC4/BLE_gatt.c ****     CYBLE_GATT_ERR_CODE_T gattErr = CYBLE_GATT_ERR_NONE;
 102:.\Generated_Source\PSoC4/BLE_gatt.c ****     
 103:.\Generated_Source\PSoC4/BLE_gatt.c ****     /* Client Characteristic Configuration descriptor write request */
 104:.\Generated_Source\PSoC4/BLE_gatt.c ****     if(eventParam->handleValPair.attrHandle == cyBle_gatts.cccdHandle)
 105:.\Generated_Source\PSoC4/BLE_gatt.c ****     {
 106:.\Generated_Source\PSoC4/BLE_gatt.c ****         /* Store value to database */
 107:.\Generated_Source\PSoC4/BLE_gatt.c ****         gattErr = CyBle_GattsWriteAttributeValue(&eventParam->handleValPair, 0u, 
 108:.\Generated_Source\PSoC4/BLE_gatt.c ****                         &eventParam->connHandle, CYBLE_GATT_DB_PEER_INITIATED);
 109:.\Generated_Source\PSoC4/BLE_gatt.c ****         
 110:.\Generated_Source\PSoC4/BLE_gatt.c ****         if(CYBLE_GATT_ERR_NONE == gattErr)
 111:.\Generated_Source\PSoC4/BLE_gatt.c ****         {
 112:.\Generated_Source\PSoC4/BLE_gatt.c ****             if(CYBLE_IS_INDICATION_ENABLED_IN_PTR(eventParam->handleValPair.value.val))
 113:.\Generated_Source\PSoC4/BLE_gatt.c ****             {
 114:.\Generated_Source\PSoC4/BLE_gatt.c ****                 CyBle_ApplCallback((uint32)CYBLE_EVT_GATTS_INDICATION_ENABLED, eventParam);
 115:.\Generated_Source\PSoC4/BLE_gatt.c ****             }
 116:.\Generated_Source\PSoC4/BLE_gatt.c ****             else
 117:.\Generated_Source\PSoC4/BLE_gatt.c ****             {
 118:.\Generated_Source\PSoC4/BLE_gatt.c ****                 CyBle_ApplCallback((uint32)CYBLE_EVT_GATTS_INDICATION_DISABLED, eventParam);
 119:.\Generated_Source\PSoC4/BLE_gatt.c ****             }
 120:.\Generated_Source\PSoC4/BLE_gatt.c ****         }
 121:.\Generated_Source\PSoC4/BLE_gatt.c ****         cyBle_eventHandlerFlag &= (uint8)~CYBLE_CALLBACK;
 122:.\Generated_Source\PSoC4/BLE_gatt.c ****     }
 123:.\Generated_Source\PSoC4/BLE_gatt.c ****     return (gattErr);
 124:.\Generated_Source\PSoC4/BLE_gatt.c **** }
 125:.\Generated_Source\PSoC4/BLE_gatt.c **** 
 126:.\Generated_Source\PSoC4/BLE_gatt.c **** 
 127:.\Generated_Source\PSoC4/BLE_gatt.c **** #endif /* (CYBLE_GATT_ROLE_SERVER) */
 128:.\Generated_Source\PSoC4/BLE_gatt.c **** 
 129:.\Generated_Source\PSoC4/BLE_gatt.c **** #if(CYBLE_GATT_ROLE_CLIENT)
 130:.\Generated_Source\PSoC4/BLE_gatt.c **** 
 131:.\Generated_Source\PSoC4/BLE_gatt.c **** 
 132:.\Generated_Source\PSoC4/BLE_gatt.c **** /****************************************************************************** 
 133:.\Generated_Source\PSoC4/BLE_gatt.c **** ##Function Name: CyBle_GattcStartDiscovery
 134:.\Generated_Source\PSoC4/BLE_gatt.c **** *******************************************************************************
 135:.\Generated_Source\PSoC4/BLE_gatt.c **** 
 136:.\Generated_Source\PSoC4/BLE_gatt.c **** Summary:
 137:.\Generated_Source\PSoC4/BLE_gatt.c ****  Starts the automatic server discovery process. Two events may be generated 
 138:.\Generated_Source\PSoC4/BLE_gatt.c ****  after calling this function - CYBLE_EVT_GATTC_DISCOVERY_COMPLETE or 
 139:.\Generated_Source\PSoC4/BLE_gatt.c ****  CYBLE_EVT_GATTC_ERROR_RSP. The CYBLE_EVT_GATTC_DISCOVERY_COMPLETE event is 
 140:.\Generated_Source\PSoC4/BLE_gatt.c ****  generated when the remote device was successfully discovered. The
 141:.\Generated_Source\PSoC4/BLE_gatt.c ****  CYBLE_EVT_GATTC_ERROR_RSP is generated if the device discovery is failed.
 142:.\Generated_Source\PSoC4/BLE_gatt.c **** 
 143:.\Generated_Source\PSoC4/BLE_gatt.c **** Parameters:
ARM GAS  C:\Users\Evan\AppData\Local\Temp\ccqKGvbt.s 			page 4


 144:.\Generated_Source\PSoC4/BLE_gatt.c ****  connHandle: The handle which consists of the device ID and ATT connection ID.
 145:.\Generated_Source\PSoC4/BLE_gatt.c **** 
 146:.\Generated_Source\PSoC4/BLE_gatt.c **** Return:
 147:.\Generated_Source\PSoC4/BLE_gatt.c ****   CYBLE_API_RESULT_T : Return value indicates if the function succeeded or
 148:.\Generated_Source\PSoC4/BLE_gatt.c ****                        failed. Following are the possible error codes.
 149:.\Generated_Source\PSoC4/BLE_gatt.c ****   CYBLE_ERROR_OK - On successful operation
 150:.\Generated_Source\PSoC4/BLE_gatt.c ****   CYBLE_ERROR_INVALID_PARAMETER - 'connHandle' value does not represent any
 151:.\Generated_Source\PSoC4/BLE_gatt.c ****                                    existing entry.
 152:.\Generated_Source\PSoC4/BLE_gatt.c ****                                                  in the Stack
 153:.\Generated_Source\PSoC4/BLE_gatt.c ****   CYBLE_ERROR_INVALID_OPERATION - The operation is not permitted.
 154:.\Generated_Source\PSoC4/BLE_gatt.c ****   CYBLE_ERROR_MEMORY_ALLOCATION_FAILED - Memory allocation failed.
 155:.\Generated_Source\PSoC4/BLE_gatt.c **** 
 156:.\Generated_Source\PSoC4/BLE_gatt.c **** ******************************************************************************/
 157:.\Generated_Source\PSoC4/BLE_gatt.c **** CYBLE_API_RESULT_T CyBle_GattcStartDiscovery(CYBLE_CONN_HANDLE_T connHandle)
 158:.\Generated_Source\PSoC4/BLE_gatt.c **** {
  29              		.loc 1 158 0
  30              		.cfi_startproc
  31 0000 90B5     		push	{r4, r7, lr}
  32              		.cfi_def_cfa_offset 12
  33              		.cfi_offset 4, -12
  34              		.cfi_offset 7, -8
  35              		.cfi_offset 14, -4
  36 0002 85B0     		sub	sp, sp, #20
  37              		.cfi_def_cfa_offset 32
  38 0004 00AF     		add	r7, sp, #0
  39              		.cfi_def_cfa_register 7
  40 0006 3B1D     		add	r3, r7, #4
  41 0008 1880     		strh	r0, [r3]
 159:.\Generated_Source\PSoC4/BLE_gatt.c ****     uint8 j;
 160:.\Generated_Source\PSoC4/BLE_gatt.c ****     CYBLE_API_RESULT_T apiResult;
 161:.\Generated_Source\PSoC4/BLE_gatt.c ****     
 162:.\Generated_Source\PSoC4/BLE_gatt.c ****     if(CYBLE_STATE_CONNECTED != CyBle_GetState())
  42              		.loc 1 162 0
  43 000a 2B4B     		ldr	r3, .L7
  44 000c 1B78     		ldrb	r3, [r3]
  45 000e 022B     		cmp	r3, #2
  46 0010 05D0     		beq	.L2
 163:.\Generated_Source\PSoC4/BLE_gatt.c ****     {
 164:.\Generated_Source\PSoC4/BLE_gatt.c ****         apiResult = CYBLE_ERROR_INVALID_STATE;
  47              		.loc 1 164 0
  48 0012 3B1C     		mov	r3, r7
  49 0014 0C33     		add	r3, r3, #12
  50 0016 8322     		mov	r2, #131
  51 0018 5200     		lsl	r2, r2, #1
  52 001a 1A80     		strh	r2, [r3]
  53 001c 45E0     		b	.L3
  54              	.L2:
 165:.\Generated_Source\PSoC4/BLE_gatt.c ****     }
 166:.\Generated_Source\PSoC4/BLE_gatt.c ****     else
 167:.\Generated_Source\PSoC4/BLE_gatt.c ****     {
 168:.\Generated_Source\PSoC4/BLE_gatt.c ****         CyBle_ServiceInit();
  55              		.loc 1 168 0
  56 001e FFF7FEFF 		bl	CyBle_ServiceInit
 169:.\Generated_Source\PSoC4/BLE_gatt.c ****         
 170:.\Generated_Source\PSoC4/BLE_gatt.c ****         cyBle_connHandle = connHandle;
  57              		.loc 1 170 0
  58 0022 264A     		ldr	r2, .L7+4
ARM GAS  C:\Users\Evan\AppData\Local\Temp\ccqKGvbt.s 			page 5


  59 0024 3B1D     		add	r3, r7, #4
  60 0026 111C     		mov	r1, r2
  61 0028 1A1C     		mov	r2, r3
  62 002a 0223     		mov	r3, #2
  63 002c 081C     		mov	r0, r1
  64 002e 111C     		mov	r1, r2
  65 0030 1A1C     		mov	r2, r3
  66 0032 FFF7FEFF 		bl	memcpy
 171:.\Generated_Source\PSoC4/BLE_gatt.c ****         cyBle_disCount = 0u;
  67              		.loc 1 171 0
  68 0036 224B     		ldr	r3, .L7+8
  69 0038 0022     		mov	r2, #0
  70 003a 1A70     		strb	r2, [r3]
 172:.\Generated_Source\PSoC4/BLE_gatt.c **** 
 173:.\Generated_Source\PSoC4/BLE_gatt.c ****         /* Clean old discovery information */
 174:.\Generated_Source\PSoC4/BLE_gatt.c ****         for(j = 0u; j < (uint8) CYBLE_SRVI_COUNT; j++)
  71              		.loc 1 174 0
  72 003c 3B1C     		mov	r3, r7
  73 003e 0F33     		add	r3, r3, #15
  74 0040 0022     		mov	r2, #0
  75 0042 1A70     		strb	r2, [r3]
  76 0044 14E0     		b	.L4
  77              	.L5:
 175:.\Generated_Source\PSoC4/BLE_gatt.c ****         {
 176:.\Generated_Source\PSoC4/BLE_gatt.c ****             (void)memset(&cyBle_serverInfo[j].range, 0, sizeof(cyBle_serverInfo[0].range));
  78              		.loc 1 176 0 discriminator 2
  79 0046 3B1C     		mov	r3, r7
  80 0048 0F33     		add	r3, r3, #15
  81 004a 1A78     		ldrb	r2, [r3]
  82 004c 131C     		mov	r3, r2
  83 004e 5B00     		lsl	r3, r3, #1
  84 0050 9B18     		add	r3, r3, r2
  85 0052 5B00     		lsl	r3, r3, #1
  86 0054 1B4A     		ldr	r2, .L7+12
  87 0056 9B18     		add	r3, r3, r2
  88 0058 181C     		mov	r0, r3
  89 005a 0021     		mov	r1, #0
  90 005c 0422     		mov	r2, #4
  91 005e FFF7FEFF 		bl	memset
 174:.\Generated_Source\PSoC4/BLE_gatt.c ****         for(j = 0u; j < (uint8) CYBLE_SRVI_COUNT; j++)
  92              		.loc 1 174 0 discriminator 2
  93 0062 3B1C     		mov	r3, r7
  94 0064 0F33     		add	r3, r3, #15
  95 0066 1A78     		ldrb	r2, [r3]
  96 0068 3B1C     		mov	r3, r7
  97 006a 0F33     		add	r3, r3, #15
  98 006c 0132     		add	r2, r2, #1
  99 006e 1A70     		strb	r2, [r3]
 100              	.L4:
 174:.\Generated_Source\PSoC4/BLE_gatt.c ****         for(j = 0u; j < (uint8) CYBLE_SRVI_COUNT; j++)
 101              		.loc 1 174 0 is_stmt 0 discriminator 1
 102 0070 3B1C     		mov	r3, r7
 103 0072 0F33     		add	r3, r3, #15
 104 0074 1B78     		ldrb	r3, [r3]
 105 0076 012B     		cmp	r3, #1
 106 0078 E5D9     		bls	.L5
 177:.\Generated_Source\PSoC4/BLE_gatt.c ****         }
ARM GAS  C:\Users\Evan\AppData\Local\Temp\ccqKGvbt.s 			page 6


 178:.\Generated_Source\PSoC4/BLE_gatt.c **** 
 179:.\Generated_Source\PSoC4/BLE_gatt.c ****         apiResult = CyBle_GattcDiscoverAllPrimaryServices(connHandle);
 107              		.loc 1 179 0 is_stmt 1
 108 007a 3C1C     		mov	r4, r7
 109 007c 0C34     		add	r4, r4, #12
 110 007e 3B1D     		add	r3, r7, #4
 111 0080 1868     		ldr	r0, [r3]
 112 0082 FFF7FEFF 		bl	CyBle_GattcDiscoverAllPrimaryServices
 113 0086 031C     		mov	r3, r0
 114 0088 2380     		strh	r3, [r4]
 180:.\Generated_Source\PSoC4/BLE_gatt.c **** 
 181:.\Generated_Source\PSoC4/BLE_gatt.c ****         if(CYBLE_ERROR_OK == apiResult)
 115              		.loc 1 181 0
 116 008a 3B1C     		mov	r3, r7
 117 008c 0C33     		add	r3, r3, #12
 118 008e 1B88     		ldrh	r3, [r3]
 119 0090 002B     		cmp	r3, #0
 120 0092 0AD1     		bne	.L3
 182:.\Generated_Source\PSoC4/BLE_gatt.c ****         {
 183:.\Generated_Source\PSoC4/BLE_gatt.c ****             CyBle_SetClientState(CYBLE_CLIENT_STATE_SRVC_DISCOVERING);
 121              		.loc 1 183 0
 122 0094 0C4B     		ldr	r3, .L7+16
 123 0096 0122     		mov	r2, #1
 124 0098 1A70     		strb	r2, [r3]
 184:.\Generated_Source\PSoC4/BLE_gatt.c ****             cyBle_eventHandlerFlag |= CYBLE_AUTO_DISCOVERY;
 125              		.loc 1 184 0
 126 009a 0C4B     		ldr	r3, .L7+20
 127 009c 1B78     		ldrb	r3, [r3]
 128 009e DBB2     		uxtb	r3, r3
 129 00a0 0222     		mov	r2, #2
 130 00a2 1343     		orr	r3, r2
 131 00a4 DAB2     		uxtb	r2, r3
 132 00a6 094B     		ldr	r3, .L7+20
 133 00a8 1A70     		strb	r2, [r3]
 134              	.L3:
 185:.\Generated_Source\PSoC4/BLE_gatt.c ****         }
 186:.\Generated_Source\PSoC4/BLE_gatt.c ****     }
 187:.\Generated_Source\PSoC4/BLE_gatt.c ****     
 188:.\Generated_Source\PSoC4/BLE_gatt.c ****     return (apiResult);
 135              		.loc 1 188 0
 136 00aa 3B1C     		mov	r3, r7
 137 00ac 0C33     		add	r3, r3, #12
 138 00ae 1B88     		ldrh	r3, [r3]
 189:.\Generated_Source\PSoC4/BLE_gatt.c **** }
 139              		.loc 1 189 0
 140 00b0 181C     		mov	r0, r3
 141 00b2 BD46     		mov	sp, r7
 142 00b4 05B0     		add	sp, sp, #20
 143              		@ sp needed
 144 00b6 90BD     		pop	{r4, r7, pc}
 145              	.L8:
 146              		.align	2
 147              	.L7:
 148 00b8 00000000 		.word	cyBle_state
 149 00bc 00000000 		.word	cyBle_connHandle
 150 00c0 00000000 		.word	cyBle_disCount
 151 00c4 00000000 		.word	cyBle_serverInfo
ARM GAS  C:\Users\Evan\AppData\Local\Temp\ccqKGvbt.s 			page 7


 152 00c8 00000000 		.word	cyBle_clientState
 153 00cc 00000000 		.word	cyBle_eventHandlerFlag
 154              		.cfi_endproc
 155              	.LFE2:
 156              		.size	CyBle_GattcStartDiscovery, .-CyBle_GattcStartDiscovery
 157              		.section	.text.CyBle_GattcDiscoverCharacteristicsEventHandler,"ax",%progbits
 158              		.align	2
 159              		.global	CyBle_GattcDiscoverCharacteristicsEventHandler
 160              		.code	16
 161              		.thumb_func
 162              		.type	CyBle_GattcDiscoverCharacteristicsEventHandler, %function
 163              	CyBle_GattcDiscoverCharacteristicsEventHandler:
 164              	.LFB3:
 190:.\Generated_Source\PSoC4/BLE_gatt.c **** 
 191:.\Generated_Source\PSoC4/BLE_gatt.c **** 
 192:.\Generated_Source\PSoC4/BLE_gatt.c **** /******************************************************************************
 193:.\Generated_Source\PSoC4/BLE_gatt.c **** ##Function Name: CyBle_GattcDiscoverCharacteristicsEventHandler
 194:.\Generated_Source\PSoC4/BLE_gatt.c **** *******************************************************************************
 195:.\Generated_Source\PSoC4/BLE_gatt.c **** 
 196:.\Generated_Source\PSoC4/BLE_gatt.c **** Summary:
 197:.\Generated_Source\PSoC4/BLE_gatt.c ****  This function is called on receiving a "CYBLE_EVT_GATTC_READ_BY_TYPE_RSP"
 198:.\Generated_Source\PSoC4/BLE_gatt.c ****  event. Based on the service UUID, an appropriate data structure is populated
 199:.\Generated_Source\PSoC4/BLE_gatt.c ****  using the data received as part of the callback.
 200:.\Generated_Source\PSoC4/BLE_gatt.c **** 
 201:.\Generated_Source\PSoC4/BLE_gatt.c **** Parameters:
 202:.\Generated_Source\PSoC4/BLE_gatt.c ****  *discCharInfo: The pointer to a characteristic information structure.
 203:.\Generated_Source\PSoC4/BLE_gatt.c **** 
 204:.\Generated_Source\PSoC4/BLE_gatt.c **** Return:
 205:.\Generated_Source\PSoC4/BLE_gatt.c ****  None
 206:.\Generated_Source\PSoC4/BLE_gatt.c **** 
 207:.\Generated_Source\PSoC4/BLE_gatt.c **** ******************************************************************************/
 208:.\Generated_Source\PSoC4/BLE_gatt.c **** void CyBle_GattcDiscoverCharacteristicsEventHandler(CYBLE_DISC_CHAR_INFO_T *discCharInfo)
 209:.\Generated_Source\PSoC4/BLE_gatt.c **** {
 165              		.loc 1 209 0
 166              		.cfi_startproc
 167 0000 80B5     		push	{r7, lr}
 168              		.cfi_def_cfa_offset 8
 169              		.cfi_offset 7, -8
 170              		.cfi_offset 14, -4
 171 0002 82B0     		sub	sp, sp, #8
 172              		.cfi_def_cfa_offset 16
 173 0004 00AF     		add	r7, sp, #0
 174              		.cfi_def_cfa_register 7
 175 0006 7860     		str	r0, [r7, #4]
 210:.\Generated_Source\PSoC4/BLE_gatt.c ****     if(discCharInfo->uuid.uuid16 == CYBLE_UUID_CHAR_SERVICE_CHANGED)
 176              		.loc 1 210 0
 177 0008 7B68     		ldr	r3, [r7, #4]
 178 000a DA88     		ldrh	r2, [r3, #6]
 179 000c 0D4B     		ldr	r3, .L12
 180 000e 9A42     		cmp	r2, r3
 181 0010 15D1     		bne	.L9
 211:.\Generated_Source\PSoC4/BLE_gatt.c ****     {
 212:.\Generated_Source\PSoC4/BLE_gatt.c ****         CyBle_CheckStoreCharHandle(cyBle_gattc.serviceChanged);
 182              		.loc 1 212 0
 183 0012 0D4B     		ldr	r3, .L12+4
 184 0014 5B88     		ldrh	r3, [r3, #2]
 185 0016 002B     		cmp	r3, #0
ARM GAS  C:\Users\Evan\AppData\Local\Temp\ccqKGvbt.s 			page 8


 186 0018 08D1     		bne	.L11
 187              		.loc 1 212 0 is_stmt 0 discriminator 1
 188 001a 7B68     		ldr	r3, [r7, #4]
 189 001c 9A88     		ldrh	r2, [r3, #4]
 190 001e 0A4B     		ldr	r3, .L12+4
 191 0020 5A80     		strh	r2, [r3, #2]
 192 0022 7B68     		ldr	r3, [r7, #4]
 193 0024 9A78     		ldrb	r2, [r3, #2]
 194 0026 084B     		ldr	r3, .L12+4
 195 0028 1A70     		strb	r2, [r3]
 196 002a 08E0     		b	.L9
 197              	.L11:
 198              		.loc 1 212 0 discriminator 2
 199 002c 074B     		ldr	r3, .L12+8
 200 002e 1B68     		ldr	r3, [r3]
 201 0030 7A68     		ldr	r2, [r7, #4]
 202 0032 0632     		add	r2, r2, #6
 203 0034 8621     		mov	r1, #134
 204 0036 4900     		lsl	r1, r1, #1
 205 0038 081C     		mov	r0, r1
 206 003a 111C     		mov	r1, r2
 207 003c 9847     		blx	r3
 208              	.L9:
 213:.\Generated_Source\PSoC4/BLE_gatt.c ****     }
 214:.\Generated_Source\PSoC4/BLE_gatt.c **** }
 209              		.loc 1 214 0 is_stmt 1
 210 003e BD46     		mov	sp, r7
 211 0040 02B0     		add	sp, sp, #8
 212              		@ sp needed
 213 0042 80BD     		pop	{r7, pc}
 214              	.L13:
 215              		.align	2
 216              	.L12:
 217 0044 052A0000 		.word	10757
 218 0048 00000000 		.word	cyBle_gattc
 219 004c 00000000 		.word	CyBle_ApplCallback
 220              		.cfi_endproc
 221              	.LFE3:
 222              		.size	CyBle_GattcDiscoverCharacteristicsEventHandler, .-CyBle_GattcDiscoverCharacteristicsEventHan
 223              		.section	.text.CyBle_GattcDiscoverCharDescriptorsEventHandler,"ax",%progbits
 224              		.align	2
 225              		.global	CyBle_GattcDiscoverCharDescriptorsEventHandler
 226              		.code	16
 227              		.thumb_func
 228              		.type	CyBle_GattcDiscoverCharDescriptorsEventHandler, %function
 229              	CyBle_GattcDiscoverCharDescriptorsEventHandler:
 230              	.LFB4:
 215:.\Generated_Source\PSoC4/BLE_gatt.c **** 
 216:.\Generated_Source\PSoC4/BLE_gatt.c **** 
 217:.\Generated_Source\PSoC4/BLE_gatt.c **** /******************************************************************************
 218:.\Generated_Source\PSoC4/BLE_gatt.c **** ##Function Name: CyBle_GattcDiscoverCharDescriptorsEventHandler
 219:.\Generated_Source\PSoC4/BLE_gatt.c **** *******************************************************************************
 220:.\Generated_Source\PSoC4/BLE_gatt.c **** 
 221:.\Generated_Source\PSoC4/BLE_gatt.c **** Summary:
 222:.\Generated_Source\PSoC4/BLE_gatt.c ****  This function is called on receiving a "CYBLE_EVT_GATTC_FIND_INFO_RSP" event.
 223:.\Generated_Source\PSoC4/BLE_gatt.c ****  Based on the descriptor UUID, an appropriate data structure is populated 
 224:.\Generated_Source\PSoC4/BLE_gatt.c ****  using the data received as part of the callback.
ARM GAS  C:\Users\Evan\AppData\Local\Temp\ccqKGvbt.s 			page 9


 225:.\Generated_Source\PSoC4/BLE_gatt.c **** 
 226:.\Generated_Source\PSoC4/BLE_gatt.c **** Parameters:
 227:.\Generated_Source\PSoC4/BLE_gatt.c ****  *discDescrInfo: The pointer to a descriptor information structure.
 228:.\Generated_Source\PSoC4/BLE_gatt.c ****  discoveryService: The index of the service instance
 229:.\Generated_Source\PSoC4/BLE_gatt.c **** 
 230:.\Generated_Source\PSoC4/BLE_gatt.c **** Return:
 231:.\Generated_Source\PSoC4/BLE_gatt.c ****  None
 232:.\Generated_Source\PSoC4/BLE_gatt.c **** 
 233:.\Generated_Source\PSoC4/BLE_gatt.c **** ******************************************************************************/
 234:.\Generated_Source\PSoC4/BLE_gatt.c **** void CyBle_GattcDiscoverCharDescriptorsEventHandler(CYBLE_DISC_DESCR_INFO_T *discDescrInfo)
 235:.\Generated_Source\PSoC4/BLE_gatt.c **** {
 231              		.loc 1 235 0
 232              		.cfi_startproc
 233 0000 80B5     		push	{r7, lr}
 234              		.cfi_def_cfa_offset 8
 235              		.cfi_offset 7, -8
 236              		.cfi_offset 14, -4
 237 0002 82B0     		sub	sp, sp, #8
 238              		.cfi_def_cfa_offset 16
 239 0004 00AF     		add	r7, sp, #0
 240              		.cfi_def_cfa_register 7
 241 0006 7860     		str	r0, [r7, #4]
 236:.\Generated_Source\PSoC4/BLE_gatt.c ****     if(discDescrInfo->uuid.uuid16 == CYBLE_UUID_CHAR_CLIENT_CONFIG)
 242              		.loc 1 236 0
 243 0008 7B68     		ldr	r3, [r7, #4]
 244 000a 9A88     		ldrh	r2, [r3, #4]
 245 000c 0B4B     		ldr	r3, .L17
 246 000e 9A42     		cmp	r2, r3
 247 0010 11D1     		bne	.L14
 237:.\Generated_Source\PSoC4/BLE_gatt.c ****     {
 238:.\Generated_Source\PSoC4/BLE_gatt.c ****         CyBle_CheckStoreCharDescrHandle(cyBle_gattc.cccdHandle);
 248              		.loc 1 238 0
 249 0012 0B4B     		ldr	r3, .L17+4
 250 0014 9B88     		ldrh	r3, [r3, #4]
 251 0016 002B     		cmp	r3, #0
 252 0018 04D1     		bne	.L16
 253              		.loc 1 238 0 is_stmt 0 discriminator 1
 254 001a 7B68     		ldr	r3, [r7, #4]
 255 001c 5A88     		ldrh	r2, [r3, #2]
 256 001e 084B     		ldr	r3, .L17+4
 257 0020 9A80     		strh	r2, [r3, #4]
 258 0022 08E0     		b	.L14
 259              	.L16:
 260              		.loc 1 238 0 discriminator 2
 261 0024 074B     		ldr	r3, .L17+8
 262 0026 1B68     		ldr	r3, [r3]
 263 0028 7A68     		ldr	r2, [r7, #4]
 264 002a 0432     		add	r2, r2, #4
 265 002c 8621     		mov	r1, #134
 266 002e 4900     		lsl	r1, r1, #1
 267 0030 081C     		mov	r0, r1
 268 0032 111C     		mov	r1, r2
 269 0034 9847     		blx	r3
 270              	.L14:
 239:.\Generated_Source\PSoC4/BLE_gatt.c ****     }
 240:.\Generated_Source\PSoC4/BLE_gatt.c **** }
 271              		.loc 1 240 0 is_stmt 1
ARM GAS  C:\Users\Evan\AppData\Local\Temp\ccqKGvbt.s 			page 10


 272 0036 BD46     		mov	sp, r7
 273 0038 02B0     		add	sp, sp, #8
 274              		@ sp needed
 275 003a 80BD     		pop	{r7, pc}
 276              	.L18:
 277              		.align	2
 278              	.L17:
 279 003c 02290000 		.word	10498
 280 0040 00000000 		.word	cyBle_gattc
 281 0044 00000000 		.word	CyBle_ApplCallback
 282              		.cfi_endproc
 283              	.LFE4:
 284              		.size	CyBle_GattcDiscoverCharDescriptorsEventHandler, .-CyBle_GattcDiscoverCharDescriptorsEventHan
 285              		.section	.text.CyBle_GattcIndicationEventHandler,"ax",%progbits
 286              		.align	2
 287              		.global	CyBle_GattcIndicationEventHandler
 288              		.code	16
 289              		.thumb_func
 290              		.type	CyBle_GattcIndicationEventHandler, %function
 291              	CyBle_GattcIndicationEventHandler:
 292              	.LFB5:
 241:.\Generated_Source\PSoC4/BLE_gatt.c **** 
 242:.\Generated_Source\PSoC4/BLE_gatt.c **** 
 243:.\Generated_Source\PSoC4/BLE_gatt.c **** /******************************************************************************
 244:.\Generated_Source\PSoC4/BLE_gatt.c **** ##Function Name: CyBle_GattcIndicationEventHandler
 245:.\Generated_Source\PSoC4/BLE_gatt.c **** *******************************************************************************
 246:.\Generated_Source\PSoC4/BLE_gatt.c **** 
 247:.\Generated_Source\PSoC4/BLE_gatt.c **** Summary:
 248:.\Generated_Source\PSoC4/BLE_gatt.c ****  Handles the Indication Event.
 249:.\Generated_Source\PSoC4/BLE_gatt.c **** 
 250:.\Generated_Source\PSoC4/BLE_gatt.c **** Parameters:
 251:.\Generated_Source\PSoC4/BLE_gatt.c ****  *eventParam: The pointer to the data structure specified by the event.
 252:.\Generated_Source\PSoC4/BLE_gatt.c **** 
 253:.\Generated_Source\PSoC4/BLE_gatt.c **** Return:
 254:.\Generated_Source\PSoC4/BLE_gatt.c ****  None.
 255:.\Generated_Source\PSoC4/BLE_gatt.c **** 
 256:.\Generated_Source\PSoC4/BLE_gatt.c **** ******************************************************************************/
 257:.\Generated_Source\PSoC4/BLE_gatt.c **** void CyBle_GattcIndicationEventHandler(CYBLE_GATTC_HANDLE_VALUE_IND_PARAM_T *eventParam)
 258:.\Generated_Source\PSoC4/BLE_gatt.c **** {
 293              		.loc 1 258 0
 294              		.cfi_startproc
 295 0000 80B5     		push	{r7, lr}
 296              		.cfi_def_cfa_offset 8
 297              		.cfi_offset 7, -8
 298              		.cfi_offset 14, -4
 299 0002 82B0     		sub	sp, sp, #8
 300              		.cfi_def_cfa_offset 16
 301 0004 00AF     		add	r7, sp, #0
 302              		.cfi_def_cfa_register 7
 303 0006 7860     		str	r0, [r7, #4]
 259:.\Generated_Source\PSoC4/BLE_gatt.c ****     if(cyBle_gattc.serviceChanged.valueHandle == eventParam->handleValPair.attrHandle)
 304              		.loc 1 259 0
 305 0008 0C4B     		ldr	r3, .L21
 306 000a 5A88     		ldrh	r2, [r3, #2]
 307 000c 7B68     		ldr	r3, [r7, #4]
 308 000e 9B89     		ldrh	r3, [r3, #12]
 309 0010 9A42     		cmp	r2, r3
ARM GAS  C:\Users\Evan\AppData\Local\Temp\ccqKGvbt.s 			page 11


 310 0012 0FD1     		bne	.L19
 260:.\Generated_Source\PSoC4/BLE_gatt.c ****     {
 261:.\Generated_Source\PSoC4/BLE_gatt.c ****         CyBle_ApplCallback((uint32)CYBLE_EVT_GATTC_INDICATION, eventParam);
 311              		.loc 1 261 0
 312 0014 0A4B     		ldr	r3, .L21+4
 313 0016 1B68     		ldr	r3, [r3]
 314 0018 8322     		mov	r2, #131
 315 001a 5100     		lsl	r1, r2, #1
 316 001c 7A68     		ldr	r2, [r7, #4]
 317 001e 081C     		mov	r0, r1
 318 0020 111C     		mov	r1, r2
 319 0022 9847     		blx	r3
 262:.\Generated_Source\PSoC4/BLE_gatt.c ****         cyBle_eventHandlerFlag &= (uint8)~CYBLE_CALLBACK;
 320              		.loc 1 262 0
 321 0024 074B     		ldr	r3, .L21+8
 322 0026 1B78     		ldrb	r3, [r3]
 323 0028 DBB2     		uxtb	r3, r3
 324 002a 0122     		mov	r2, #1
 325 002c 9343     		bic	r3, r2
 326 002e DAB2     		uxtb	r2, r3
 327 0030 044B     		ldr	r3, .L21+8
 328 0032 1A70     		strb	r2, [r3]
 329              	.L19:
 263:.\Generated_Source\PSoC4/BLE_gatt.c ****     }
 264:.\Generated_Source\PSoC4/BLE_gatt.c **** }
 330              		.loc 1 264 0
 331 0034 BD46     		mov	sp, r7
 332 0036 02B0     		add	sp, sp, #8
 333              		@ sp needed
 334 0038 80BD     		pop	{r7, pc}
 335              	.L22:
 336 003a C046     		.align	2
 337              	.L21:
 338 003c 00000000 		.word	cyBle_gattc
 339 0040 00000000 		.word	CyBle_ApplCallback
 340 0044 00000000 		.word	cyBle_eventHandlerFlag
 341              		.cfi_endproc
 342              	.LFE5:
 343              		.size	CyBle_GattcIndicationEventHandler, .-CyBle_GattcIndicationEventHandler
 344              		.text
 345              	.Letext0:
 346              		.file 2 ".\\Generated_Source\\PSoC4\\cytypes.h"
 347              		.file 3 ".\\Generated_Source\\PSoC4\\BLE_Stack.h"
 348              		.file 4 ".\\Generated_Source\\PSoC4\\BLE_StackGatt.h"
 349              		.file 5 ".\\Generated_Source\\PSoC4\\BLE_StackGattClient.h"
 350              		.file 6 ".\\Generated_Source\\PSoC4\\BLE.h"
 351              		.file 7 ".\\Generated_Source\\PSoC4\\BLE_gatt.h"
 352              		.file 8 ".\\Generated_Source\\PSoC4\\BLE_eventHandler.h"