ARM GAS  C:\Users\Evan\AppData\Local\Temp\ccmgTxtA.s 			page 1


   1              		.cpu cortex-m0
   2              		.fpu softvfp
   3              		.eabi_attribute 20, 1
   4              		.eabi_attribute 21, 1
   5              		.eabi_attribute 23, 3
   6              		.eabi_attribute 24, 1
   7              		.eabi_attribute 25, 1
   8              		.eabi_attribute 26, 1
   9              		.eabi_attribute 30, 6
  10              		.eabi_attribute 34, 0
  11              		.eabi_attribute 18, 4
  12              		.code	16
  13              		.file	"BLE_eventHandler.c"
  14              		.text
  15              	.Ltext0:
  16              		.cfi_sections	.debug_frame
  17              		.comm	cyBle_connHandle,2,4
  18              		.comm	cyBle_eventHandlerFlag,1,1
  19              		.comm	cyBle_busyStatus,1,1
  20              		.comm	cyBle_advertisingIntervalType,1,1
  21              		.comm	cyBle_disCount,1,1
  22              		.bss
  23              		.align	1
  24              	cyBle_charEndHandle:
  25 0000 0000     		.space	2
  26              		.global	cyBle_serverInfo
  27              		.data
  28              		.align	2
  29              		.type	cyBle_serverInfo, %object
  30              		.size	cyBle_serverInfo, 12
  31              	cyBle_serverInfo:
  32 0000 0000     		.short	0
  33 0002 0000     		.short	0
  34 0004 0018     		.short	6144
  35 0006 0000     		.short	0
  36 0008 0000     		.short	0
  37 000a 0118     		.short	6145
  38              		.comm	cyBle_gapc,10,4
  39              		.global	cyBle_authInfo
  40              		.align	2
  41              		.type	cyBle_authInfo, %object
  42              		.size	cyBle_authInfo, 4
  43              	cyBle_authInfo:
  44 000c 12       		.byte	18
  45 000d 01       		.byte	1
  46 000e 10       		.byte	16
  47 000f 00       		.byte	0
  48              		.section	.text.CyBle_GattcWriteResponseEventHandler,"ax",%progbits
  49              		.align	2
  50              		.code	16
  51              		.thumb_func
  52              		.type	CyBle_GattcWriteResponseEventHandler, %function
  53              	CyBle_GattcWriteResponseEventHandler:
  54              	.LFB2:
  55              		.file 1 ".\\Generated_Source\\PSoC4\\BLE_eventHandler.c"
   1:.\Generated_Source\PSoC4/BLE_eventHandler.c **** /*******************************************************************************
   2:.\Generated_Source\PSoC4/BLE_eventHandler.c **** File Name: CYBLE_eventHandler.c
ARM GAS  C:\Users\Evan\AppData\Local\Temp\ccmgTxtA.s 			page 2


   3:.\Generated_Source\PSoC4/BLE_eventHandler.c **** Version 1.20
   4:.\Generated_Source\PSoC4/BLE_eventHandler.c **** 
   5:.\Generated_Source\PSoC4/BLE_eventHandler.c **** Description:
   6:.\Generated_Source\PSoC4/BLE_eventHandler.c ****  This file contains the source code for the Event Handler State Machine
   7:.\Generated_Source\PSoC4/BLE_eventHandler.c ****  of the BLE Component.
   8:.\Generated_Source\PSoC4/BLE_eventHandler.c **** 
   9:.\Generated_Source\PSoC4/BLE_eventHandler.c **** ********************************************************************************
  10:.\Generated_Source\PSoC4/BLE_eventHandler.c **** Copyright 2014-2015, Cypress Semiconductor Corporation.  All rights reserved.
  11:.\Generated_Source\PSoC4/BLE_eventHandler.c **** You may use this file only in accordance with the license, terms, conditions,
  12:.\Generated_Source\PSoC4/BLE_eventHandler.c **** disclaimers, and limitations in the end user license agreement accompanying
  13:.\Generated_Source\PSoC4/BLE_eventHandler.c **** the software package with which this file was provided.
  14:.\Generated_Source\PSoC4/BLE_eventHandler.c **** *******************************************************************************/
  15:.\Generated_Source\PSoC4/BLE_eventHandler.c **** 
  16:.\Generated_Source\PSoC4/BLE_eventHandler.c **** #include "BLE_eventHandler.h"
  17:.\Generated_Source\PSoC4/BLE_eventHandler.c **** 
  18:.\Generated_Source\PSoC4/BLE_eventHandler.c **** 
  19:.\Generated_Source\PSoC4/BLE_eventHandler.c **** /***************************************
  20:.\Generated_Source\PSoC4/BLE_eventHandler.c **** ##Private Function Prototypes
  21:.\Generated_Source\PSoC4/BLE_eventHandler.c **** ***************************************/
  22:.\Generated_Source\PSoC4/BLE_eventHandler.c **** 
  23:.\Generated_Source\PSoC4/BLE_eventHandler.c **** #if (CYBLE_GATT_ROLE_SERVER || CYBLE_GATT_ROLE_CLIENT)
  24:.\Generated_Source\PSoC4/BLE_eventHandler.c **** 
  25:.\Generated_Source\PSoC4/BLE_eventHandler.c **** static uint8 CyBle_IsDeviceAddressValid(const CYBLE_GAP_BD_ADDR_T *sflashDeviceAddress);
  26:.\Generated_Source\PSoC4/BLE_eventHandler.c **** 
  27:.\Generated_Source\PSoC4/BLE_eventHandler.c **** #endif /* CYBLE_GATT_ROLE_SERVER || CYBLE_GATT_ROLE_CLIENT */
  28:.\Generated_Source\PSoC4/BLE_eventHandler.c **** 
  29:.\Generated_Source\PSoC4/BLE_eventHandler.c **** static void CyBle_GattDisconnectEventHandler(void);
  30:.\Generated_Source\PSoC4/BLE_eventHandler.c **** static void CyBle_TimeOutEventHandler(const CYBLE_TO_REASON_CODE_T *eventParam);
  31:.\Generated_Source\PSoC4/BLE_eventHandler.c **** static void CyBle_GattConnectReqHandler(void);
  32:.\Generated_Source\PSoC4/BLE_eventHandler.c **** static void CyBle_L2Cap_ConnParamUpdateRspEventHandler(uint16 response);
  33:.\Generated_Source\PSoC4/BLE_eventHandler.c **** static void CyBle_GapConnUpdateCompleteEventHandler(const CYBLE_GAP_CONN_PARAM_UPDATED_IN_CONTROLLE
  34:.\Generated_Source\PSoC4/BLE_eventHandler.c **** 
  35:.\Generated_Source\PSoC4/BLE_eventHandler.c **** 
  36:.\Generated_Source\PSoC4/BLE_eventHandler.c **** #if (CYBLE_GATT_ROLE_SERVER)
  37:.\Generated_Source\PSoC4/BLE_eventHandler.c **** 
  38:.\Generated_Source\PSoC4/BLE_eventHandler.c **** static void CyBle_WriteReqHandler(CYBLE_GATTS_WRITE_REQ_PARAM_T *eventParam);
  39:.\Generated_Source\PSoC4/BLE_eventHandler.c **** static void CyBle_ValueConfirmation(const CYBLE_CONN_HANDLE_T *eventParam);
  40:.\Generated_Source\PSoC4/BLE_eventHandler.c **** 
  41:.\Generated_Source\PSoC4/BLE_eventHandler.c **** #endif /* CYBLE_GATT_ROLE_SERVER */
  42:.\Generated_Source\PSoC4/BLE_eventHandler.c **** 
  43:.\Generated_Source\PSoC4/BLE_eventHandler.c **** #if (CYBLE_GATT_ROLE_CLIENT)
  44:.\Generated_Source\PSoC4/BLE_eventHandler.c **** 
  45:.\Generated_Source\PSoC4/BLE_eventHandler.c **** static void CyBle_GapcDiscoverCharacteristicsEventHandler(CYBLE_DISC_CHAR_INFO_T *discCharInfo);
  46:.\Generated_Source\PSoC4/BLE_eventHandler.c **** static CYBLE_GATT_ATTR_HANDLE_RANGE_T CyBle_GetCharRange(void);
  47:.\Generated_Source\PSoC4/BLE_eventHandler.c **** static void CyBle_GattcWriteResponseEventHandler(const CYBLE_CONN_HANDLE_T *eventParam);
  48:.\Generated_Source\PSoC4/BLE_eventHandler.c **** static void CyBle_NotificationEventHandler(CYBLE_GATTC_HANDLE_VALUE_NTF_PARAM_T *eventParam);
  49:.\Generated_Source\PSoC4/BLE_eventHandler.c **** static void CyBle_IndicationEventHandler(CYBLE_GATTC_HANDLE_VALUE_IND_PARAM_T *eventParam);
  50:.\Generated_Source\PSoC4/BLE_eventHandler.c **** static void CyBle_ReadResponseEventHandler(CYBLE_GATTC_READ_RSP_PARAM_T *eventParam);
  51:.\Generated_Source\PSoC4/BLE_eventHandler.c **** 
  52:.\Generated_Source\PSoC4/BLE_eventHandler.c **** #endif /* CYBLE_GATT_ROLE_CLIENT */
  53:.\Generated_Source\PSoC4/BLE_eventHandler.c **** 
  54:.\Generated_Source\PSoC4/BLE_eventHandler.c **** 
  55:.\Generated_Source\PSoC4/BLE_eventHandler.c **** /***************************************
  56:.\Generated_Source\PSoC4/BLE_eventHandler.c **** ##Global Variables
  57:.\Generated_Source\PSoC4/BLE_eventHandler.c **** ***************************************/
  58:.\Generated_Source\PSoC4/BLE_eventHandler.c **** 
  59:.\Generated_Source\PSoC4/BLE_eventHandler.c **** /* This global variable is initialized after connection with peer device, 
ARM GAS  C:\Users\Evan\AppData\Local\Temp\ccmgTxtA.s 			page 3


  60:.\Generated_Source\PSoC4/BLE_eventHandler.c ****    after CYBLE_EVT_GATT_CONNECT_IND event, and could be used by application code
  61:.\Generated_Source\PSoC4/BLE_eventHandler.c ****    to send data to peer device. 
  62:.\Generated_Source\PSoC4/BLE_eventHandler.c **** */
  63:.\Generated_Source\PSoC4/BLE_eventHandler.c **** CYBLE_CONN_HANDLE_T cyBle_connHandle;
  64:.\Generated_Source\PSoC4/BLE_eventHandler.c **** 
  65:.\Generated_Source\PSoC4/BLE_eventHandler.c **** volatile uint8 cyBle_eventHandlerFlag;
  66:.\Generated_Source\PSoC4/BLE_eventHandler.c **** volatile uint8 cyBle_busyStatus;
  67:.\Generated_Source\PSoC4/BLE_eventHandler.c **** 
  68:.\Generated_Source\PSoC4/BLE_eventHandler.c **** #if(CYBLE_GAP_ROLE_PERIPHERAL || CYBLE_GAP_ROLE_BROADCASTER) 
  69:.\Generated_Source\PSoC4/BLE_eventHandler.c ****     uint8 cyBle_advertisingIntervalType;
  70:.\Generated_Source\PSoC4/BLE_eventHandler.c **** #endif /* CYBLE_GAP_ROLE_PERIPHERAL || CYBLE_GAP_ROLE_BROADCASTER) */
  71:.\Generated_Source\PSoC4/BLE_eventHandler.c **** 
  72:.\Generated_Source\PSoC4/BLE_eventHandler.c **** #if(CYBLE_GAP_ROLE_CENTRAL || CYBLE_GAP_ROLE_OBSERVER) 
  73:.\Generated_Source\PSoC4/BLE_eventHandler.c ****     uint8 cyBle_scanningIntervalType;
  74:.\Generated_Source\PSoC4/BLE_eventHandler.c **** #endif /* CYBLE_GAP_ROLE_CENTRAL || CYBLE_GAP_ROLE_OBSERVER */
  75:.\Generated_Source\PSoC4/BLE_eventHandler.c **** 
  76:.\Generated_Source\PSoC4/BLE_eventHandler.c **** #if(CYBLE_GATT_ROLE_CLIENT)
  77:.\Generated_Source\PSoC4/BLE_eventHandler.c **** uint8 cyBle_disCount; /* Counter for discovery procedures */
  78:.\Generated_Source\PSoC4/BLE_eventHandler.c **** static CYBLE_GATT_DB_ATTR_HANDLE_T cyBle_charEndHandle;
  79:.\Generated_Source\PSoC4/BLE_eventHandler.c **** #ifdef CYBLE_HIDS_CLIENT
  80:.\Generated_Source\PSoC4/BLE_eventHandler.c ****     static uint8 disServiceIndex;      /* To discovery descriptors for multiple HID service instanc
  81:.\Generated_Source\PSoC4/BLE_eventHandler.c **** #endif /* CYBLE_HIDS_CLIENT */
  82:.\Generated_Source\PSoC4/BLE_eventHandler.c **** 
  83:.\Generated_Source\PSoC4/BLE_eventHandler.c **** CYBLE_DISC_SRVC_INFO_T cyBle_serverInfo[CYBLE_SRVI_COUNT] = /*3*/
  84:.\Generated_Source\PSoC4/BLE_eventHandler.c **** {
  85:.\Generated_Source\PSoC4/BLE_eventHandler.c ****     {{CYBLE_GATT_INVALID_ATTR_HANDLE_VALUE, CYBLE_GATT_INVALID_ATTR_HANDLE_VALUE}, CYBLE_UUID_GAP_S
  86:.\Generated_Source\PSoC4/BLE_eventHandler.c ****     {{CYBLE_GATT_INVALID_ATTR_HANDLE_VALUE, CYBLE_GATT_INVALID_ATTR_HANDLE_VALUE}, CYBLE_UUID_GATT_
  87:.\Generated_Source\PSoC4/BLE_eventHandler.c **** #ifdef CYBLE_ANS_CLIENT
  88:.\Generated_Source\PSoC4/BLE_eventHandler.c ****     {{CYBLE_GATT_INVALID_ATTR_HANDLE_VALUE, CYBLE_GATT_INVALID_ATTR_HANDLE_VALUE}, CYBLE_UUID_ALERT
  89:.\Generated_Source\PSoC4/BLE_eventHandler.c **** #endif /* CYBLE_ANS_CLIENT */
  90:.\Generated_Source\PSoC4/BLE_eventHandler.c **** #ifdef CYBLE_BAS_CLIENT
  91:.\Generated_Source\PSoC4/BLE_eventHandler.c ****     {{CYBLE_GATT_INVALID_ATTR_HANDLE_VALUE, CYBLE_GATT_INVALID_ATTR_HANDLE_VALUE}, CYBLE_UUID_BAS_S
  92:.\Generated_Source\PSoC4/BLE_eventHandler.c ****     #if(CYBLE_BASC_SERVICE_COUNT > 1u) /* Generate it by GUI */
  93:.\Generated_Source\PSoC4/BLE_eventHandler.c ****         
  94:.\Generated_Source\PSoC4/BLE_eventHandler.c ****     #endif /* CYBLE_BASC_SERVICE_COUNT > 1u */
  95:.\Generated_Source\PSoC4/BLE_eventHandler.c **** #endif /* CYBLE_BAS_CLIENT */
  96:.\Generated_Source\PSoC4/BLE_eventHandler.c **** #ifdef CYBLE_BLS_CLIENT
  97:.\Generated_Source\PSoC4/BLE_eventHandler.c ****     {{CYBLE_GATT_INVALID_ATTR_HANDLE_VALUE, CYBLE_GATT_INVALID_ATTR_HANDLE_VALUE}, CYBLE_UUID_BLOOD
  98:.\Generated_Source\PSoC4/BLE_eventHandler.c **** #endif /* CYBLE_BLS_CLIENT */
  99:.\Generated_Source\PSoC4/BLE_eventHandler.c **** #ifdef CYBLE_CGMS_CLIENT
 100:.\Generated_Source\PSoC4/BLE_eventHandler.c ****     {{CYBLE_GATT_INVALID_ATTR_HANDLE_VALUE, CYBLE_GATT_INVALID_ATTR_HANDLE_VALUE}, CYBLE_UUID_CGM_S
 101:.\Generated_Source\PSoC4/BLE_eventHandler.c **** #endif /* CYBLE_CGMS_CLIENT */
 102:.\Generated_Source\PSoC4/BLE_eventHandler.c **** #ifdef CYBLE_CPS_CLIENT
 103:.\Generated_Source\PSoC4/BLE_eventHandler.c ****     {{CYBLE_GATT_INVALID_ATTR_HANDLE_VALUE, CYBLE_GATT_INVALID_ATTR_HANDLE_VALUE}, CYBLE_UUID_CPS_S
 104:.\Generated_Source\PSoC4/BLE_eventHandler.c **** #endif /* CYBLE_CPS_CLIENT */
 105:.\Generated_Source\PSoC4/BLE_eventHandler.c **** #ifdef CYBLE_CSCS_CLIENT
 106:.\Generated_Source\PSoC4/BLE_eventHandler.c ****     {{CYBLE_GATT_INVALID_ATTR_HANDLE_VALUE, CYBLE_GATT_INVALID_ATTR_HANDLE_VALUE}, CYBLE_UUID_CYCLI
 107:.\Generated_Source\PSoC4/BLE_eventHandler.c **** #endif /* CYBLE_CSCS_CLIENT */
 108:.\Generated_Source\PSoC4/BLE_eventHandler.c **** #ifdef CYBLE_CTS_CLIENT
 109:.\Generated_Source\PSoC4/BLE_eventHandler.c ****     {{CYBLE_GATT_INVALID_ATTR_HANDLE_VALUE, CYBLE_GATT_INVALID_ATTR_HANDLE_VALUE}, CYBLE_UUID_CURRE
 110:.\Generated_Source\PSoC4/BLE_eventHandler.c **** #endif /* CYBLE_CTS_CLIENT */
 111:.\Generated_Source\PSoC4/BLE_eventHandler.c **** #ifdef CYBLE_DIS_CLIENT
 112:.\Generated_Source\PSoC4/BLE_eventHandler.c ****     {{CYBLE_GATT_INVALID_ATTR_HANDLE_VALUE, CYBLE_GATT_INVALID_ATTR_HANDLE_VALUE}, CYBLE_UUID_DEVIC
 113:.\Generated_Source\PSoC4/BLE_eventHandler.c **** #endif /* CYBLE_DIS_CLIENT */
 114:.\Generated_Source\PSoC4/BLE_eventHandler.c **** #ifdef CYBLE_GLS_CLIENT
 115:.\Generated_Source\PSoC4/BLE_eventHandler.c ****     {{CYBLE_GATT_INVALID_ATTR_HANDLE_VALUE, CYBLE_GATT_INVALID_ATTR_HANDLE_VALUE}, CYBLE_UUID_GLUCO
 116:.\Generated_Source\PSoC4/BLE_eventHandler.c **** #endif /* CYBLE_GLS_CLIENT */
ARM GAS  C:\Users\Evan\AppData\Local\Temp\ccmgTxtA.s 			page 4


 117:.\Generated_Source\PSoC4/BLE_eventHandler.c **** #ifdef CYBLE_HIDS_CLIENT
 118:.\Generated_Source\PSoC4/BLE_eventHandler.c ****     {{CYBLE_GATT_INVALID_ATTR_HANDLE_VALUE, CYBLE_GATT_INVALID_ATTR_HANDLE_VALUE}, CYBLE_UUID_HIDS_
 119:.\Generated_Source\PSoC4/BLE_eventHandler.c ****     #if(CYBLE_HIDSC_SERVICE_COUNT > 1u) /* Generate it by GUI */
 120:.\Generated_Source\PSoC4/BLE_eventHandler.c ****         
 121:.\Generated_Source\PSoC4/BLE_eventHandler.c ****     #endif /* CYBLE_HIDSC_SERVICE_COUNT > 1u */
 122:.\Generated_Source\PSoC4/BLE_eventHandler.c **** #endif /* CYBLE_HIDS_CLIENT */
 123:.\Generated_Source\PSoC4/BLE_eventHandler.c **** #ifdef CYBLE_HRS_CLIENT
 124:.\Generated_Source\PSoC4/BLE_eventHandler.c ****     {{CYBLE_GATT_INVALID_ATTR_HANDLE_VALUE, CYBLE_GATT_INVALID_ATTR_HANDLE_VALUE}, CYBLE_UUID_HEART
 125:.\Generated_Source\PSoC4/BLE_eventHandler.c **** #endif /* CYBLE_HRS_CLIENT */
 126:.\Generated_Source\PSoC4/BLE_eventHandler.c **** #ifdef CYBLE_HTS_CLIENT
 127:.\Generated_Source\PSoC4/BLE_eventHandler.c ****     {{CYBLE_GATT_INVALID_ATTR_HANDLE_VALUE, CYBLE_GATT_INVALID_ATTR_HANDLE_VALUE}, CYBLE_UUID_HEALT
 128:.\Generated_Source\PSoC4/BLE_eventHandler.c **** #endif /* CYBLE_HTS_CLIENT */
 129:.\Generated_Source\PSoC4/BLE_eventHandler.c **** #ifdef CYBLE_IAS_CLIENT
 130:.\Generated_Source\PSoC4/BLE_eventHandler.c ****     {{CYBLE_GATT_INVALID_ATTR_HANDLE_VALUE, CYBLE_GATT_INVALID_ATTR_HANDLE_VALUE}, CYBLE_UUID_IMMED
 131:.\Generated_Source\PSoC4/BLE_eventHandler.c **** #endif /* CYBLE_IAS_CLIENT */
 132:.\Generated_Source\PSoC4/BLE_eventHandler.c **** #ifdef CYBLE_LLS_CLIENT
 133:.\Generated_Source\PSoC4/BLE_eventHandler.c ****     {{CYBLE_GATT_INVALID_ATTR_HANDLE_VALUE, CYBLE_GATT_INVALID_ATTR_HANDLE_VALUE}, CYBLE_UUID_LINK_
 134:.\Generated_Source\PSoC4/BLE_eventHandler.c **** #endif /* CYBLE_LLS_CLIENT */
 135:.\Generated_Source\PSoC4/BLE_eventHandler.c **** #ifdef CYBLE_LNS_CLIENT
 136:.\Generated_Source\PSoC4/BLE_eventHandler.c ****     {{CYBLE_GATT_INVALID_ATTR_HANDLE_VALUE, CYBLE_GATT_INVALID_ATTR_HANDLE_VALUE}, CYBLE_UUID_LOCAT
 137:.\Generated_Source\PSoC4/BLE_eventHandler.c **** #endif /* CYBLE_LNS_CLIENT */
 138:.\Generated_Source\PSoC4/BLE_eventHandler.c **** #ifdef CYBLE_NDCS_CLIENT
 139:.\Generated_Source\PSoC4/BLE_eventHandler.c ****     {{CYBLE_GATT_INVALID_ATTR_HANDLE_VALUE, CYBLE_GATT_INVALID_ATTR_HANDLE_VALUE}, CYBLE_UUID_NEXT_
 140:.\Generated_Source\PSoC4/BLE_eventHandler.c **** #endif /* CYBLE_NDCS_CLIENT */
 141:.\Generated_Source\PSoC4/BLE_eventHandler.c **** #ifdef CYBLE_PASS_CLIENT
 142:.\Generated_Source\PSoC4/BLE_eventHandler.c ****     {{CYBLE_GATT_INVALID_ATTR_HANDLE_VALUE, CYBLE_GATT_INVALID_ATTR_HANDLE_VALUE}, CYBLE_UUID_PHONE
 143:.\Generated_Source\PSoC4/BLE_eventHandler.c **** #endif /* CYBLE_PASS_CLIENT */
 144:.\Generated_Source\PSoC4/BLE_eventHandler.c **** #ifdef CYBLE_RSCS_CLIENT
 145:.\Generated_Source\PSoC4/BLE_eventHandler.c ****     {{CYBLE_GATT_INVALID_ATTR_HANDLE_VALUE, CYBLE_GATT_INVALID_ATTR_HANDLE_VALUE}, CYBLE_UUID_RUNNI
 146:.\Generated_Source\PSoC4/BLE_eventHandler.c **** #endif /* CYBLE_RSCS_CLIENT */
 147:.\Generated_Source\PSoC4/BLE_eventHandler.c **** #ifdef CYBLE_RTUS_CLIENT
 148:.\Generated_Source\PSoC4/BLE_eventHandler.c ****     {{CYBLE_GATT_INVALID_ATTR_HANDLE_VALUE, CYBLE_GATT_INVALID_ATTR_HANDLE_VALUE}, CYBLE_UUID_REF_T
 149:.\Generated_Source\PSoC4/BLE_eventHandler.c **** #endif /* CYBLE_RTUS_CLIENT */
 150:.\Generated_Source\PSoC4/BLE_eventHandler.c **** #ifdef CYBLE_SCPS_CLIENT
 151:.\Generated_Source\PSoC4/BLE_eventHandler.c ****     {{CYBLE_GATT_INVALID_ATTR_HANDLE_VALUE, CYBLE_GATT_INVALID_ATTR_HANDLE_VALUE}, CYBLE_UUID_SCAN_
 152:.\Generated_Source\PSoC4/BLE_eventHandler.c **** #endif /* CYBLE_SCPS_CLIENT */
 153:.\Generated_Source\PSoC4/BLE_eventHandler.c **** #ifdef CYBLE_TPS_CLIENT
 154:.\Generated_Source\PSoC4/BLE_eventHandler.c ****     {{CYBLE_GATT_INVALID_ATTR_HANDLE_VALUE, CYBLE_GATT_INVALID_ATTR_HANDLE_VALUE}, CYBLE_UUID_TX_PO
 155:.\Generated_Source\PSoC4/BLE_eventHandler.c **** #endif /* CYBLE_TPS_CLIENT */
 156:.\Generated_Source\PSoC4/BLE_eventHandler.c **** #ifdef CYBLE_UDS_CLIENT
 157:.\Generated_Source\PSoC4/BLE_eventHandler.c ****     {{CYBLE_GATT_INVALID_ATTR_HANDLE_VALUE, CYBLE_GATT_INVALID_ATTR_HANDLE_VALUE}, CYBLE_UUID_USER_
 158:.\Generated_Source\PSoC4/BLE_eventHandler.c **** #endif /* CYBLE_UDS_CLIENT */
 159:.\Generated_Source\PSoC4/BLE_eventHandler.c **** 
 160:.\Generated_Source\PSoC4/BLE_eventHandler.c **** };
 161:.\Generated_Source\PSoC4/BLE_eventHandler.c **** 
 162:.\Generated_Source\PSoC4/BLE_eventHandler.c **** CYBLE_GAPC_T cyBle_gapc;
 163:.\Generated_Source\PSoC4/BLE_eventHandler.c **** 
 164:.\Generated_Source\PSoC4/BLE_eventHandler.c **** #endif /* CYBLE_GATT_ROLE_CLIENT */
 165:.\Generated_Source\PSoC4/BLE_eventHandler.c **** 
 166:.\Generated_Source\PSoC4/BLE_eventHandler.c **** /* Default device security */
 167:.\Generated_Source\PSoC4/BLE_eventHandler.c **** CYBLE_GAP_AUTH_INFO_T cyBle_authInfo =
 168:.\Generated_Source\PSoC4/BLE_eventHandler.c **** {
 169:.\Generated_Source\PSoC4/BLE_eventHandler.c ****     (CYBLE_GAP_SEC_MODE_1 | CYBLE_GAP_SEC_LEVEL_3 ), /* uint8 security */
 170:.\Generated_Source\PSoC4/BLE_eventHandler.c ****     CYBLE_GAP_BONDING, /* uint8 bonding */
 171:.\Generated_Source\PSoC4/BLE_eventHandler.c ****     0x10u,      /* uint8 ekeySize */
 172:.\Generated_Source\PSoC4/BLE_eventHandler.c ****     CYBLE_GAP_AUTH_ERROR_NONE, /* CYBLE_AUTH_FAILED_REASON_T authErr */
 173:.\Generated_Source\PSoC4/BLE_eventHandler.c **** };
ARM GAS  C:\Users\Evan\AppData\Local\Temp\ccmgTxtA.s 			page 5


 174:.\Generated_Source\PSoC4/BLE_eventHandler.c **** 
 175:.\Generated_Source\PSoC4/BLE_eventHandler.c **** #if(CYBLE_GATT_ROLE_SERVER)
 176:.\Generated_Source\PSoC4/BLE_eventHandler.c **** 
 177:.\Generated_Source\PSoC4/BLE_eventHandler.c **** 
 178:.\Generated_Source\PSoC4/BLE_eventHandler.c **** /******************************************************************************    
 179:.\Generated_Source\PSoC4/BLE_eventHandler.c **** ##Function Name: CyBle_WriteReqHandler
 180:.\Generated_Source\PSoC4/BLE_eventHandler.c **** *******************************************************************************
 181:.\Generated_Source\PSoC4/BLE_eventHandler.c **** 
 182:.\Generated_Source\PSoC4/BLE_eventHandler.c **** Summary:
 183:.\Generated_Source\PSoC4/BLE_eventHandler.c ****  Handles the Write Request event from BLE stack.
 184:.\Generated_Source\PSoC4/BLE_eventHandler.c **** 
 185:.\Generated_Source\PSoC4/BLE_eventHandler.c **** Parameters:
 186:.\Generated_Source\PSoC4/BLE_eventHandler.c ****  CYBLE_GATTS_WRITE_REQ_PARAM_T * eventParam - event parameter
 187:.\Generated_Source\PSoC4/BLE_eventHandler.c **** 
 188:.\Generated_Source\PSoC4/BLE_eventHandler.c **** Return:
 189:.\Generated_Source\PSoC4/BLE_eventHandler.c ****  None
 190:.\Generated_Source\PSoC4/BLE_eventHandler.c **** 
 191:.\Generated_Source\PSoC4/BLE_eventHandler.c **** ******************************************************************************/
 192:.\Generated_Source\PSoC4/BLE_eventHandler.c **** static void CyBle_WriteReqHandler(CYBLE_GATTS_WRITE_REQ_PARAM_T *eventParam)
 193:.\Generated_Source\PSoC4/BLE_eventHandler.c **** {
 194:.\Generated_Source\PSoC4/BLE_eventHandler.c ****     CYBLE_GATT_ERR_CODE_T gattErr;
 195:.\Generated_Source\PSoC4/BLE_eventHandler.c ****     
 196:.\Generated_Source\PSoC4/BLE_eventHandler.c ****     gattErr = CyBle_GattsWriteEventHandler(eventParam);
 197:.\Generated_Source\PSoC4/BLE_eventHandler.c **** #ifdef CYBLE_ANS_SERVER
 198:.\Generated_Source\PSoC4/BLE_eventHandler.c ****     if((CYBLE_GATT_ERR_NONE == gattErr) && ((cyBle_eventHandlerFlag & CYBLE_CALLBACK) != 0u))
 199:.\Generated_Source\PSoC4/BLE_eventHandler.c ****     {
 200:.\Generated_Source\PSoC4/BLE_eventHandler.c ****         gattErr = CyBle_AnssWriteEventHandler(eventParam);
 201:.\Generated_Source\PSoC4/BLE_eventHandler.c ****     }
 202:.\Generated_Source\PSoC4/BLE_eventHandler.c **** #endif /* CYBLE_ANS_SERVER */
 203:.\Generated_Source\PSoC4/BLE_eventHandler.c **** #ifdef CYBLE_BAS_SERVER
 204:.\Generated_Source\PSoC4/BLE_eventHandler.c ****     if((CYBLE_GATT_ERR_NONE == gattErr) && ((cyBle_eventHandlerFlag & CYBLE_CALLBACK) != 0u))
 205:.\Generated_Source\PSoC4/BLE_eventHandler.c ****     {
 206:.\Generated_Source\PSoC4/BLE_eventHandler.c ****         gattErr = CyBle_BassWriteEventHandler(eventParam);
 207:.\Generated_Source\PSoC4/BLE_eventHandler.c ****     }
 208:.\Generated_Source\PSoC4/BLE_eventHandler.c **** #endif /* CYBLE_BAS_SERVER */
 209:.\Generated_Source\PSoC4/BLE_eventHandler.c **** #ifdef CYBLE_BLS_SERVER
 210:.\Generated_Source\PSoC4/BLE_eventHandler.c ****     if((CYBLE_GATT_ERR_NONE == gattErr) && ((cyBle_eventHandlerFlag & CYBLE_CALLBACK) != 0u))
 211:.\Generated_Source\PSoC4/BLE_eventHandler.c ****     {
 212:.\Generated_Source\PSoC4/BLE_eventHandler.c ****         gattErr = CyBle_BlssWriteEventHandler(eventParam);
 213:.\Generated_Source\PSoC4/BLE_eventHandler.c ****     }
 214:.\Generated_Source\PSoC4/BLE_eventHandler.c **** #endif /* CYBLE_BLS_SERVER */
 215:.\Generated_Source\PSoC4/BLE_eventHandler.c **** #ifdef CYBLE_CPS_SERVER
 216:.\Generated_Source\PSoC4/BLE_eventHandler.c ****     if((CYBLE_GATT_ERR_NONE == gattErr) && ((cyBle_eventHandlerFlag & CYBLE_CALLBACK) != 0u))
 217:.\Generated_Source\PSoC4/BLE_eventHandler.c ****     {
 218:.\Generated_Source\PSoC4/BLE_eventHandler.c ****         gattErr = CyBle_CpssWriteEventHandler(eventParam);
 219:.\Generated_Source\PSoC4/BLE_eventHandler.c ****     }
 220:.\Generated_Source\PSoC4/BLE_eventHandler.c **** #endif /* CYBLE_CPS_SERVER */
 221:.\Generated_Source\PSoC4/BLE_eventHandler.c **** #ifdef CYBLE_CSCS_SERVER
 222:.\Generated_Source\PSoC4/BLE_eventHandler.c ****     if((CYBLE_GATT_ERR_NONE == gattErr) && ((cyBle_eventHandlerFlag & CYBLE_CALLBACK) != 0u))
 223:.\Generated_Source\PSoC4/BLE_eventHandler.c ****     {
 224:.\Generated_Source\PSoC4/BLE_eventHandler.c ****         gattErr = CyBle_CscssWriteEventHandler(eventParam);
 225:.\Generated_Source\PSoC4/BLE_eventHandler.c ****     }
 226:.\Generated_Source\PSoC4/BLE_eventHandler.c **** #endif /* CYBLE_CSCS_SERVER */
 227:.\Generated_Source\PSoC4/BLE_eventHandler.c **** #ifdef CYBLE_CTS_SERVER
 228:.\Generated_Source\PSoC4/BLE_eventHandler.c ****     if((CYBLE_GATT_ERR_NONE == gattErr) && ((cyBle_eventHandlerFlag & CYBLE_CALLBACK) != 0u))
 229:.\Generated_Source\PSoC4/BLE_eventHandler.c ****     {
 230:.\Generated_Source\PSoC4/BLE_eventHandler.c ****         gattErr = CyBle_CtssWriteEventHandler(eventParam);
ARM GAS  C:\Users\Evan\AppData\Local\Temp\ccmgTxtA.s 			page 6


 231:.\Generated_Source\PSoC4/BLE_eventHandler.c ****     }
 232:.\Generated_Source\PSoC4/BLE_eventHandler.c **** #endif /* CYBLE_CTS_SERVER */
 233:.\Generated_Source\PSoC4/BLE_eventHandler.c **** #ifdef CYBLE_GLS_SERVER
 234:.\Generated_Source\PSoC4/BLE_eventHandler.c ****     if((CYBLE_GATT_ERR_NONE == gattErr) && ((cyBle_eventHandlerFlag & CYBLE_CALLBACK) != 0u))
 235:.\Generated_Source\PSoC4/BLE_eventHandler.c ****     {
 236:.\Generated_Source\PSoC4/BLE_eventHandler.c ****         gattErr = CyBle_GlssWriteEventHandler(eventParam);
 237:.\Generated_Source\PSoC4/BLE_eventHandler.c ****     }
 238:.\Generated_Source\PSoC4/BLE_eventHandler.c **** #endif /* CYBLE_GLS_SERVER */
 239:.\Generated_Source\PSoC4/BLE_eventHandler.c **** #ifdef CYBLE_HIDS_SERVER
 240:.\Generated_Source\PSoC4/BLE_eventHandler.c ****     if((CYBLE_GATT_ERR_NONE == gattErr) && ((cyBle_eventHandlerFlag & CYBLE_CALLBACK) != 0u))
 241:.\Generated_Source\PSoC4/BLE_eventHandler.c ****     {
 242:.\Generated_Source\PSoC4/BLE_eventHandler.c ****         gattErr = CyBle_HidssWriteEventHandler(eventParam);
 243:.\Generated_Source\PSoC4/BLE_eventHandler.c ****     }
 244:.\Generated_Source\PSoC4/BLE_eventHandler.c **** #endif /* CYBLE_HIDS_SERVER */
 245:.\Generated_Source\PSoC4/BLE_eventHandler.c **** #ifdef CYBLE_HRS_SERVER
 246:.\Generated_Source\PSoC4/BLE_eventHandler.c ****     if((CYBLE_GATT_ERR_NONE == gattErr) && ((cyBle_eventHandlerFlag & CYBLE_CALLBACK) != 0u))
 247:.\Generated_Source\PSoC4/BLE_eventHandler.c ****     {
 248:.\Generated_Source\PSoC4/BLE_eventHandler.c ****         gattErr = CyBle_HrssWriteEventHandler(eventParam);
 249:.\Generated_Source\PSoC4/BLE_eventHandler.c ****     }
 250:.\Generated_Source\PSoC4/BLE_eventHandler.c **** #endif /* CYBLE_HRS_SERVER */
 251:.\Generated_Source\PSoC4/BLE_eventHandler.c **** #ifdef CYBLE_HTS_SERVER
 252:.\Generated_Source\PSoC4/BLE_eventHandler.c ****     if((CYBLE_GATT_ERR_NONE == gattErr) && ((cyBle_eventHandlerFlag & CYBLE_CALLBACK) != 0u))
 253:.\Generated_Source\PSoC4/BLE_eventHandler.c ****     {
 254:.\Generated_Source\PSoC4/BLE_eventHandler.c ****         gattErr = CyBle_HtssWriteEventHandler(eventParam);
 255:.\Generated_Source\PSoC4/BLE_eventHandler.c ****     }
 256:.\Generated_Source\PSoC4/BLE_eventHandler.c **** #endif /* CYBLE_HTS_SERVER */
 257:.\Generated_Source\PSoC4/BLE_eventHandler.c **** #ifdef CYBLE_LLS_SERVER
 258:.\Generated_Source\PSoC4/BLE_eventHandler.c ****     if((CYBLE_GATT_ERR_NONE == gattErr) && ((cyBle_eventHandlerFlag & CYBLE_CALLBACK) != 0u))
 259:.\Generated_Source\PSoC4/BLE_eventHandler.c ****     {
 260:.\Generated_Source\PSoC4/BLE_eventHandler.c ****         gattErr = CyBle_LlssWriteEventHandler(eventParam);
 261:.\Generated_Source\PSoC4/BLE_eventHandler.c ****     }
 262:.\Generated_Source\PSoC4/BLE_eventHandler.c **** #endif /* CYBLE_LLS_SERVER */
 263:.\Generated_Source\PSoC4/BLE_eventHandler.c **** #ifdef CYBLE_LNS_SERVER
 264:.\Generated_Source\PSoC4/BLE_eventHandler.c ****     if((CYBLE_GATT_ERR_NONE == gattErr) && ((cyBle_eventHandlerFlag & CYBLE_CALLBACK) != 0u))
 265:.\Generated_Source\PSoC4/BLE_eventHandler.c ****     {
 266:.\Generated_Source\PSoC4/BLE_eventHandler.c ****         gattErr = CyBle_LnssWriteEventHandler(eventParam);
 267:.\Generated_Source\PSoC4/BLE_eventHandler.c ****     }
 268:.\Generated_Source\PSoC4/BLE_eventHandler.c **** #endif /* CYBLE_LNS_SERVER */
 269:.\Generated_Source\PSoC4/BLE_eventHandler.c **** #ifdef CYBLE_PASS_SERVER
 270:.\Generated_Source\PSoC4/BLE_eventHandler.c ****     if((CYBLE_GATT_ERR_NONE == gattErr) && ((cyBle_eventHandlerFlag & CYBLE_CALLBACK) != 0u))
 271:.\Generated_Source\PSoC4/BLE_eventHandler.c ****     {
 272:.\Generated_Source\PSoC4/BLE_eventHandler.c ****         gattErr = CyBle_PasssWriteEventHandler(eventParam);
 273:.\Generated_Source\PSoC4/BLE_eventHandler.c ****     }
 274:.\Generated_Source\PSoC4/BLE_eventHandler.c **** #endif /* CYBLE_PASS_SERVER */
 275:.\Generated_Source\PSoC4/BLE_eventHandler.c **** #ifdef CYBLE_RSCS_SERVER
 276:.\Generated_Source\PSoC4/BLE_eventHandler.c ****     if((CYBLE_GATT_ERR_NONE == gattErr) && ((cyBle_eventHandlerFlag & CYBLE_CALLBACK) != 0u))
 277:.\Generated_Source\PSoC4/BLE_eventHandler.c ****     {
 278:.\Generated_Source\PSoC4/BLE_eventHandler.c ****         gattErr = CyBle_RscssWriteEventHandler(eventParam);
 279:.\Generated_Source\PSoC4/BLE_eventHandler.c ****     }
 280:.\Generated_Source\PSoC4/BLE_eventHandler.c **** #endif /* CYBLE_RSCS_SERVER */
 281:.\Generated_Source\PSoC4/BLE_eventHandler.c **** #ifdef CYBLE_SCPS_SERVER
 282:.\Generated_Source\PSoC4/BLE_eventHandler.c ****     if((CYBLE_GATT_ERR_NONE == gattErr) && ((cyBle_eventHandlerFlag & CYBLE_CALLBACK) != 0u))
 283:.\Generated_Source\PSoC4/BLE_eventHandler.c ****     {
 284:.\Generated_Source\PSoC4/BLE_eventHandler.c ****         gattErr = CyBle_ScpssWriteEventHandler(eventParam);
 285:.\Generated_Source\PSoC4/BLE_eventHandler.c ****     }
 286:.\Generated_Source\PSoC4/BLE_eventHandler.c **** #endif /* CYBLE_SCPS_SERVER */
 287:.\Generated_Source\PSoC4/BLE_eventHandler.c **** #ifdef CYBLE_TPS_SERVER
ARM GAS  C:\Users\Evan\AppData\Local\Temp\ccmgTxtA.s 			page 7


 288:.\Generated_Source\PSoC4/BLE_eventHandler.c ****     if((CYBLE_GATT_ERR_NONE == gattErr) && ((cyBle_eventHandlerFlag & CYBLE_CALLBACK) != 0u))
 289:.\Generated_Source\PSoC4/BLE_eventHandler.c ****     {
 290:.\Generated_Source\PSoC4/BLE_eventHandler.c ****         gattErr = CyBle_TpssWriteEventHandler(eventParam);
 291:.\Generated_Source\PSoC4/BLE_eventHandler.c ****     }
 292:.\Generated_Source\PSoC4/BLE_eventHandler.c **** #endif /* CYBLE_TPS_SERVER */
 293:.\Generated_Source\PSoC4/BLE_eventHandler.c **** #ifdef CYBLE_UDS_SERVER
 294:.\Generated_Source\PSoC4/BLE_eventHandler.c ****     if((CYBLE_GATT_ERR_NONE == gattErr) && ((cyBle_eventHandlerFlag & CYBLE_CALLBACK) != 0u))
 295:.\Generated_Source\PSoC4/BLE_eventHandler.c ****     {
 296:.\Generated_Source\PSoC4/BLE_eventHandler.c ****         gattErr = CyBle_UdssWriteEventHandler(eventParam);
 297:.\Generated_Source\PSoC4/BLE_eventHandler.c ****     }
 298:.\Generated_Source\PSoC4/BLE_eventHandler.c **** #endif /* CYBLE_UDS_SERVER */
 299:.\Generated_Source\PSoC4/BLE_eventHandler.c **** 
 300:.\Generated_Source\PSoC4/BLE_eventHandler.c ****     /* Send response when event was handled by service */
 301:.\Generated_Source\PSoC4/BLE_eventHandler.c ****     if((cyBle_eventHandlerFlag & CYBLE_CALLBACK) == 0u)
 302:.\Generated_Source\PSoC4/BLE_eventHandler.c ****     {
 303:.\Generated_Source\PSoC4/BLE_eventHandler.c ****         if(CYBLE_GATT_ERR_NONE != gattErr)
 304:.\Generated_Source\PSoC4/BLE_eventHandler.c ****         {
 305:.\Generated_Source\PSoC4/BLE_eventHandler.c ****             CYBLE_GATTS_ERR_PARAM_T err_param;
 306:.\Generated_Source\PSoC4/BLE_eventHandler.c ****             
 307:.\Generated_Source\PSoC4/BLE_eventHandler.c ****             err_param.opcode = (uint8) CYBLE_GATT_WRITE_REQ;
 308:.\Generated_Source\PSoC4/BLE_eventHandler.c ****             err_param.attrHandle = eventParam->handleValPair.attrHandle;
 309:.\Generated_Source\PSoC4/BLE_eventHandler.c ****             err_param.errorCode = gattErr;
 310:.\Generated_Source\PSoC4/BLE_eventHandler.c **** 
 311:.\Generated_Source\PSoC4/BLE_eventHandler.c ****             /* Send Error Response */
 312:.\Generated_Source\PSoC4/BLE_eventHandler.c ****             (void)CyBle_GattsErrorRsp(eventParam->connHandle, &err_param);
 313:.\Generated_Source\PSoC4/BLE_eventHandler.c ****         }
 314:.\Generated_Source\PSoC4/BLE_eventHandler.c ****         else
 315:.\Generated_Source\PSoC4/BLE_eventHandler.c ****         {
 316:.\Generated_Source\PSoC4/BLE_eventHandler.c ****             (void)CyBle_GattsWriteRsp(eventParam->connHandle);
 317:.\Generated_Source\PSoC4/BLE_eventHandler.c ****         }
 318:.\Generated_Source\PSoC4/BLE_eventHandler.c ****     }
 319:.\Generated_Source\PSoC4/BLE_eventHandler.c **** }
 320:.\Generated_Source\PSoC4/BLE_eventHandler.c **** 
 321:.\Generated_Source\PSoC4/BLE_eventHandler.c **** 
 322:.\Generated_Source\PSoC4/BLE_eventHandler.c **** /****************************************************************************** 
 323:.\Generated_Source\PSoC4/BLE_eventHandler.c **** ##Function Name: CyBle_ValueConfirmation
 324:.\Generated_Source\PSoC4/BLE_eventHandler.c **** *******************************************************************************
 325:.\Generated_Source\PSoC4/BLE_eventHandler.c **** 
 326:.\Generated_Source\PSoC4/BLE_eventHandler.c **** Summary:
 327:.\Generated_Source\PSoC4/BLE_eventHandler.c ****  Handles the Value Confirmation request event from the BLE stack.
 328:.\Generated_Source\PSoC4/BLE_eventHandler.c **** 
 329:.\Generated_Source\PSoC4/BLE_eventHandler.c **** Parameters:
 330:.\Generated_Source\PSoC4/BLE_eventHandler.c ****  CYBLE_CONN_HANDLE_T *eventParam - Pointer to a structure
 331:.\Generated_Source\PSoC4/BLE_eventHandler.c ****     of type 'CYBLE_CONN_HANDLE_T'
 332:.\Generated_Source\PSoC4/BLE_eventHandler.c **** 
 333:.\Generated_Source\PSoC4/BLE_eventHandler.c **** Return:
 334:.\Generated_Source\PSoC4/BLE_eventHandler.c ****  None
 335:.\Generated_Source\PSoC4/BLE_eventHandler.c **** 
 336:.\Generated_Source\PSoC4/BLE_eventHandler.c **** ******************************************************************************/
 337:.\Generated_Source\PSoC4/BLE_eventHandler.c **** static void CyBle_ValueConfirmation(const CYBLE_CONN_HANDLE_T *eventParam)
 338:.\Generated_Source\PSoC4/BLE_eventHandler.c **** {
 339:.\Generated_Source\PSoC4/BLE_eventHandler.c ****     if(eventParam != NULL)
 340:.\Generated_Source\PSoC4/BLE_eventHandler.c ****     {
 341:.\Generated_Source\PSoC4/BLE_eventHandler.c ****     #ifdef CYBLE_BLS_SERVER
 342:.\Generated_Source\PSoC4/BLE_eventHandler.c ****         CyBle_BlssConfirmationEventHandler(eventParam);
 343:.\Generated_Source\PSoC4/BLE_eventHandler.c ****     #endif /* CYBLE_BLS_SERVER */
 344:.\Generated_Source\PSoC4/BLE_eventHandler.c ****     
ARM GAS  C:\Users\Evan\AppData\Local\Temp\ccmgTxtA.s 			page 8


 345:.\Generated_Source\PSoC4/BLE_eventHandler.c ****     #ifdef CYBLE_CPS_SERVER
 346:.\Generated_Source\PSoC4/BLE_eventHandler.c ****         if((cyBle_eventHandlerFlag & CYBLE_CALLBACK) != 0u)
 347:.\Generated_Source\PSoC4/BLE_eventHandler.c ****         {
 348:.\Generated_Source\PSoC4/BLE_eventHandler.c ****             CyBle_CpssConfirmationEventHandler(eventParam);
 349:.\Generated_Source\PSoC4/BLE_eventHandler.c ****         }
 350:.\Generated_Source\PSoC4/BLE_eventHandler.c ****     #endif /* CYBLE_CPS_SERVER */
 351:.\Generated_Source\PSoC4/BLE_eventHandler.c ****     
 352:.\Generated_Source\PSoC4/BLE_eventHandler.c ****     #ifdef CYBLE_CSCS_SERVER
 353:.\Generated_Source\PSoC4/BLE_eventHandler.c ****         if((cyBle_eventHandlerFlag & CYBLE_CALLBACK) != 0u)
 354:.\Generated_Source\PSoC4/BLE_eventHandler.c ****         {
 355:.\Generated_Source\PSoC4/BLE_eventHandler.c ****             CyBle_CscssConfirmationEventHandler(eventParam);
 356:.\Generated_Source\PSoC4/BLE_eventHandler.c ****         }
 357:.\Generated_Source\PSoC4/BLE_eventHandler.c ****     #endif /* CYBLE_CSCS_SERVER */
 358:.\Generated_Source\PSoC4/BLE_eventHandler.c ****     
 359:.\Generated_Source\PSoC4/BLE_eventHandler.c ****     #ifdef CYBLE_GLS_SERVER
 360:.\Generated_Source\PSoC4/BLE_eventHandler.c ****         if((cyBle_eventHandlerFlag & CYBLE_CALLBACK) != 0u)
 361:.\Generated_Source\PSoC4/BLE_eventHandler.c ****         {
 362:.\Generated_Source\PSoC4/BLE_eventHandler.c ****             CyBle_GlssConfirmationEventHandler(eventParam);
 363:.\Generated_Source\PSoC4/BLE_eventHandler.c ****         }
 364:.\Generated_Source\PSoC4/BLE_eventHandler.c ****     #endif /* CYBLE_GLS_SERVER */
 365:.\Generated_Source\PSoC4/BLE_eventHandler.c ****     
 366:.\Generated_Source\PSoC4/BLE_eventHandler.c ****     #ifdef CYBLE_HTS_SERVER
 367:.\Generated_Source\PSoC4/BLE_eventHandler.c ****         if((cyBle_eventHandlerFlag & CYBLE_CALLBACK) != 0u)
 368:.\Generated_Source\PSoC4/BLE_eventHandler.c ****         {
 369:.\Generated_Source\PSoC4/BLE_eventHandler.c ****             CyBle_HtssConfirmationEventHandler(eventParam);
 370:.\Generated_Source\PSoC4/BLE_eventHandler.c ****         }
 371:.\Generated_Source\PSoC4/BLE_eventHandler.c ****     #endif /* CYBLE_HTS_SERVER */
 372:.\Generated_Source\PSoC4/BLE_eventHandler.c **** 
 373:.\Generated_Source\PSoC4/BLE_eventHandler.c ****     #ifdef CYBLE_LNS_SERVER
 374:.\Generated_Source\PSoC4/BLE_eventHandler.c ****         if((cyBle_eventHandlerFlag & CYBLE_CALLBACK) != 0u)
 375:.\Generated_Source\PSoC4/BLE_eventHandler.c ****         {
 376:.\Generated_Source\PSoC4/BLE_eventHandler.c ****             CyBle_LnssConfirmationEventHandler(eventParam);
 377:.\Generated_Source\PSoC4/BLE_eventHandler.c ****         }
 378:.\Generated_Source\PSoC4/BLE_eventHandler.c ****     #endif /* CYBLE_LNS_SERVER */
 379:.\Generated_Source\PSoC4/BLE_eventHandler.c ****     
 380:.\Generated_Source\PSoC4/BLE_eventHandler.c ****     #ifdef CYBLE_RSCS_SERVER
 381:.\Generated_Source\PSoC4/BLE_eventHandler.c ****         if((cyBle_eventHandlerFlag & CYBLE_CALLBACK) != 0u)
 382:.\Generated_Source\PSoC4/BLE_eventHandler.c ****         {
 383:.\Generated_Source\PSoC4/BLE_eventHandler.c ****             CyBle_RscssConfirmationEventHandler(eventParam);
 384:.\Generated_Source\PSoC4/BLE_eventHandler.c ****         }
 385:.\Generated_Source\PSoC4/BLE_eventHandler.c ****     #endif /* CYBLE_RSCS_SERVER */
 386:.\Generated_Source\PSoC4/BLE_eventHandler.c ****     
 387:.\Generated_Source\PSoC4/BLE_eventHandler.c ****     #ifdef CYBLE_UDS_SERVER
 388:.\Generated_Source\PSoC4/BLE_eventHandler.c ****         if((cyBle_eventHandlerFlag & CYBLE_CALLBACK) != 0u)
 389:.\Generated_Source\PSoC4/BLE_eventHandler.c ****         {
 390:.\Generated_Source\PSoC4/BLE_eventHandler.c ****             CyBle_UdssConfirmationEventHandler(eventParam);
 391:.\Generated_Source\PSoC4/BLE_eventHandler.c ****         }
 392:.\Generated_Source\PSoC4/BLE_eventHandler.c ****     #endif /* CYBLE_UDS_SERVER */
 393:.\Generated_Source\PSoC4/BLE_eventHandler.c ****     }
 394:.\Generated_Source\PSoC4/BLE_eventHandler.c **** }
 395:.\Generated_Source\PSoC4/BLE_eventHandler.c **** 
 396:.\Generated_Source\PSoC4/BLE_eventHandler.c **** #endif /* CYBLE_GATT_ROLE_SERVER */
 397:.\Generated_Source\PSoC4/BLE_eventHandler.c **** 
 398:.\Generated_Source\PSoC4/BLE_eventHandler.c **** 
 399:.\Generated_Source\PSoC4/BLE_eventHandler.c **** #if (CYBLE_GATT_ROLE_CLIENT)
 400:.\Generated_Source\PSoC4/BLE_eventHandler.c **** 
 401:.\Generated_Source\PSoC4/BLE_eventHandler.c **** /****************************************************************************** 
ARM GAS  C:\Users\Evan\AppData\Local\Temp\ccmgTxtA.s 			page 9


 402:.\Generated_Source\PSoC4/BLE_eventHandler.c **** ##Function Name: CyBle_GattcWriteResponseEventHandler
 403:.\Generated_Source\PSoC4/BLE_eventHandler.c **** *******************************************************************************
 404:.\Generated_Source\PSoC4/BLE_eventHandler.c **** 
 405:.\Generated_Source\PSoC4/BLE_eventHandler.c **** Summary:
 406:.\Generated_Source\PSoC4/BLE_eventHandler.c ****  Handles the Write response event from the BLE stack.
 407:.\Generated_Source\PSoC4/BLE_eventHandler.c **** 
 408:.\Generated_Source\PSoC4/BLE_eventHandler.c **** Parameters:
 409:.\Generated_Source\PSoC4/BLE_eventHandler.c ****  CYBLE_CONN_HANDLE_T *eventParam - Pointer to a structure
 410:.\Generated_Source\PSoC4/BLE_eventHandler.c ****     of type 'CYBLE_CONN_HANDLE_T'
 411:.\Generated_Source\PSoC4/BLE_eventHandler.c **** 
 412:.\Generated_Source\PSoC4/BLE_eventHandler.c **** Return:
 413:.\Generated_Source\PSoC4/BLE_eventHandler.c ****  None
 414:.\Generated_Source\PSoC4/BLE_eventHandler.c **** 
 415:.\Generated_Source\PSoC4/BLE_eventHandler.c **** ******************************************************************************/
 416:.\Generated_Source\PSoC4/BLE_eventHandler.c **** static void CyBle_GattcWriteResponseEventHandler(const CYBLE_CONN_HANDLE_T *eventParam)
 417:.\Generated_Source\PSoC4/BLE_eventHandler.c **** {
  56              		.loc 1 417 0
  57              		.cfi_startproc
  58 0000 80B5     		push	{r7, lr}
  59              		.cfi_def_cfa_offset 8
  60              		.cfi_offset 7, -8
  61              		.cfi_offset 14, -4
  62 0002 82B0     		sub	sp, sp, #8
  63              		.cfi_def_cfa_offset 16
  64 0004 00AF     		add	r7, sp, #0
  65              		.cfi_def_cfa_register 7
  66 0006 7860     		str	r0, [r7, #4]
 418:.\Generated_Source\PSoC4/BLE_eventHandler.c **** #ifdef CYBLE_ANS_CLIENT
 419:.\Generated_Source\PSoC4/BLE_eventHandler.c ****     CyBle_AnscWriteResponseEventHandler(eventParam);
 420:.\Generated_Source\PSoC4/BLE_eventHandler.c **** #endif /* CYBLE_ANS_CLIENT */
 421:.\Generated_Source\PSoC4/BLE_eventHandler.c **** 
 422:.\Generated_Source\PSoC4/BLE_eventHandler.c **** #ifdef CYBLE_BAS_CLIENT
 423:.\Generated_Source\PSoC4/BLE_eventHandler.c ****     if((cyBle_eventHandlerFlag & CYBLE_CALLBACK) != 0u)
 424:.\Generated_Source\PSoC4/BLE_eventHandler.c ****     {
 425:.\Generated_Source\PSoC4/BLE_eventHandler.c ****         CyBle_BascWriteResponseEventHandler(eventParam);
 426:.\Generated_Source\PSoC4/BLE_eventHandler.c ****     }
 427:.\Generated_Source\PSoC4/BLE_eventHandler.c **** #endif /* CYBLE_BAS_CLIENT */
 428:.\Generated_Source\PSoC4/BLE_eventHandler.c **** 
 429:.\Generated_Source\PSoC4/BLE_eventHandler.c **** #ifdef CYBLE_BLS_CLIENT
 430:.\Generated_Source\PSoC4/BLE_eventHandler.c ****     if((cyBle_eventHandlerFlag & CYBLE_CALLBACK) != 0u)
 431:.\Generated_Source\PSoC4/BLE_eventHandler.c ****     {
 432:.\Generated_Source\PSoC4/BLE_eventHandler.c ****         CyBle_BlscWriteResponseEventHandler(eventParam);
 433:.\Generated_Source\PSoC4/BLE_eventHandler.c ****     }
 434:.\Generated_Source\PSoC4/BLE_eventHandler.c **** #endif /* CYBLE_BLS_CLIENT */
 435:.\Generated_Source\PSoC4/BLE_eventHandler.c **** 
 436:.\Generated_Source\PSoC4/BLE_eventHandler.c **** #ifdef CYBLE_CGMS_CLIENT
 437:.\Generated_Source\PSoC4/BLE_eventHandler.c ****     if((cyBle_eventHandlerFlag & CYBLE_CALLBACK) != 0u)
 438:.\Generated_Source\PSoC4/BLE_eventHandler.c ****     {
 439:.\Generated_Source\PSoC4/BLE_eventHandler.c ****         CyBle_CgmscWriteResponseEventHandler(eventParam);
 440:.\Generated_Source\PSoC4/BLE_eventHandler.c ****     }
 441:.\Generated_Source\PSoC4/BLE_eventHandler.c **** #endif /* CYBLE_CGMS_CLIENT */
 442:.\Generated_Source\PSoC4/BLE_eventHandler.c **** 
 443:.\Generated_Source\PSoC4/BLE_eventHandler.c **** #ifdef CYBLE_CPS_CLIENT
 444:.\Generated_Source\PSoC4/BLE_eventHandler.c ****     if((cyBle_eventHandlerFlag & CYBLE_CALLBACK) != 0u)
 445:.\Generated_Source\PSoC4/BLE_eventHandler.c ****     {
 446:.\Generated_Source\PSoC4/BLE_eventHandler.c ****         CyBle_CpscWriteResponseEventHandler(eventParam);
 447:.\Generated_Source\PSoC4/BLE_eventHandler.c ****     }
ARM GAS  C:\Users\Evan\AppData\Local\Temp\ccmgTxtA.s 			page 10


 448:.\Generated_Source\PSoC4/BLE_eventHandler.c **** #endif /* CYBLE_CPS_CLIENT */
 449:.\Generated_Source\PSoC4/BLE_eventHandler.c **** 
 450:.\Generated_Source\PSoC4/BLE_eventHandler.c **** #ifdef CYBLE_CSCS_CLIENT
 451:.\Generated_Source\PSoC4/BLE_eventHandler.c ****     if((cyBle_eventHandlerFlag & CYBLE_CALLBACK) != 0u)
 452:.\Generated_Source\PSoC4/BLE_eventHandler.c ****     {
 453:.\Generated_Source\PSoC4/BLE_eventHandler.c ****         CyBle_CscscWriteResponseEventHandler(eventParam);
 454:.\Generated_Source\PSoC4/BLE_eventHandler.c ****     }
 455:.\Generated_Source\PSoC4/BLE_eventHandler.c **** #endif /* CYBLE_CSCS_CLIENT */
 456:.\Generated_Source\PSoC4/BLE_eventHandler.c **** 
 457:.\Generated_Source\PSoC4/BLE_eventHandler.c **** #ifdef CYBLE_CTS_CLIENT
 458:.\Generated_Source\PSoC4/BLE_eventHandler.c ****     if((cyBle_eventHandlerFlag & CYBLE_CALLBACK) != 0u)
 459:.\Generated_Source\PSoC4/BLE_eventHandler.c ****     {
 460:.\Generated_Source\PSoC4/BLE_eventHandler.c ****         CyBle_CtscWriteResponseEventHandler(eventParam);
 461:.\Generated_Source\PSoC4/BLE_eventHandler.c ****     }
 462:.\Generated_Source\PSoC4/BLE_eventHandler.c **** #endif /* CYBLE_CTS_CLIENT */
 463:.\Generated_Source\PSoC4/BLE_eventHandler.c **** 
 464:.\Generated_Source\PSoC4/BLE_eventHandler.c **** #ifdef CYBLE_GLS_CLIENT
 465:.\Generated_Source\PSoC4/BLE_eventHandler.c ****     if((cyBle_eventHandlerFlag & CYBLE_CALLBACK) != 0u)
 466:.\Generated_Source\PSoC4/BLE_eventHandler.c ****     {
 467:.\Generated_Source\PSoC4/BLE_eventHandler.c ****         CyBle_GlscWriteResponseEventHandler(eventParam);
 468:.\Generated_Source\PSoC4/BLE_eventHandler.c ****     }
 469:.\Generated_Source\PSoC4/BLE_eventHandler.c **** #endif /* CYBLE_GLS_CLIENT */
 470:.\Generated_Source\PSoC4/BLE_eventHandler.c **** 
 471:.\Generated_Source\PSoC4/BLE_eventHandler.c **** #ifdef CYBLE_HIDS_CLIENT
 472:.\Generated_Source\PSoC4/BLE_eventHandler.c ****     if((cyBle_eventHandlerFlag & CYBLE_CALLBACK) != 0u)
 473:.\Generated_Source\PSoC4/BLE_eventHandler.c ****     {
 474:.\Generated_Source\PSoC4/BLE_eventHandler.c ****         CyBle_HidscWriteResponseEventHandler(eventParam);
 475:.\Generated_Source\PSoC4/BLE_eventHandler.c ****     }
 476:.\Generated_Source\PSoC4/BLE_eventHandler.c **** #endif /* CYBLE_HIDS_CLIENT */
 477:.\Generated_Source\PSoC4/BLE_eventHandler.c **** 
 478:.\Generated_Source\PSoC4/BLE_eventHandler.c **** #ifdef CYBLE_HRS_CLIENT
 479:.\Generated_Source\PSoC4/BLE_eventHandler.c ****     if((cyBle_eventHandlerFlag & CYBLE_CALLBACK) != 0u)
 480:.\Generated_Source\PSoC4/BLE_eventHandler.c ****     {
 481:.\Generated_Source\PSoC4/BLE_eventHandler.c ****         CyBle_HrscWriteResponseEventHandler(eventParam);
 482:.\Generated_Source\PSoC4/BLE_eventHandler.c ****     }
 483:.\Generated_Source\PSoC4/BLE_eventHandler.c **** #endif /* CYBLE_HRS_CLIENT */
 484:.\Generated_Source\PSoC4/BLE_eventHandler.c **** 
 485:.\Generated_Source\PSoC4/BLE_eventHandler.c **** #ifdef CYBLE_HTS_CLIENT
 486:.\Generated_Source\PSoC4/BLE_eventHandler.c ****     if((cyBle_eventHandlerFlag & CYBLE_CALLBACK) != 0u)
 487:.\Generated_Source\PSoC4/BLE_eventHandler.c ****     {
 488:.\Generated_Source\PSoC4/BLE_eventHandler.c ****         CyBle_HtscWriteResponseEventHandler(eventParam);
 489:.\Generated_Source\PSoC4/BLE_eventHandler.c ****     }
 490:.\Generated_Source\PSoC4/BLE_eventHandler.c **** #endif /* CYBLE_HTS_CLIENT */
 491:.\Generated_Source\PSoC4/BLE_eventHandler.c **** 
 492:.\Generated_Source\PSoC4/BLE_eventHandler.c **** #ifdef CYBLE_LLS_CLIENT
 493:.\Generated_Source\PSoC4/BLE_eventHandler.c ****     if((cyBle_eventHandlerFlag & CYBLE_CALLBACK) != 0u)
 494:.\Generated_Source\PSoC4/BLE_eventHandler.c ****     {
 495:.\Generated_Source\PSoC4/BLE_eventHandler.c ****         CyBle_LlscWriteResponseEventHandler(eventParam);
 496:.\Generated_Source\PSoC4/BLE_eventHandler.c ****     }
 497:.\Generated_Source\PSoC4/BLE_eventHandler.c **** #endif /* CYBLE_LLS_CLIENT */
 498:.\Generated_Source\PSoC4/BLE_eventHandler.c **** 
 499:.\Generated_Source\PSoC4/BLE_eventHandler.c **** #ifdef CYBLE_LNS_CLIENT
 500:.\Generated_Source\PSoC4/BLE_eventHandler.c ****     if((cyBle_eventHandlerFlag & CYBLE_CALLBACK) != 0u)
 501:.\Generated_Source\PSoC4/BLE_eventHandler.c ****     {
 502:.\Generated_Source\PSoC4/BLE_eventHandler.c ****         CyBle_LnscWriteResponseEventHandler(eventParam);
 503:.\Generated_Source\PSoC4/BLE_eventHandler.c ****     }
 504:.\Generated_Source\PSoC4/BLE_eventHandler.c **** #endif /* CYBLE_LNS_CLIENT */
ARM GAS  C:\Users\Evan\AppData\Local\Temp\ccmgTxtA.s 			page 11


 505:.\Generated_Source\PSoC4/BLE_eventHandler.c **** 
 506:.\Generated_Source\PSoC4/BLE_eventHandler.c **** #ifdef CYBLE_PASS_CLIENT
 507:.\Generated_Source\PSoC4/BLE_eventHandler.c ****     if((cyBle_eventHandlerFlag & CYBLE_CALLBACK) != 0u)
 508:.\Generated_Source\PSoC4/BLE_eventHandler.c ****     {
 509:.\Generated_Source\PSoC4/BLE_eventHandler.c ****         CyBle_PasscWriteResponseEventHandler(eventParam);
 510:.\Generated_Source\PSoC4/BLE_eventHandler.c ****     }
 511:.\Generated_Source\PSoC4/BLE_eventHandler.c **** #endif /* CYBLE_PASS_CLIENT */
 512:.\Generated_Source\PSoC4/BLE_eventHandler.c **** 
 513:.\Generated_Source\PSoC4/BLE_eventHandler.c **** #ifdef CYBLE_RSCS_CLIENT
 514:.\Generated_Source\PSoC4/BLE_eventHandler.c ****     if((cyBle_eventHandlerFlag & CYBLE_CALLBACK) != 0u)
 515:.\Generated_Source\PSoC4/BLE_eventHandler.c ****     {
 516:.\Generated_Source\PSoC4/BLE_eventHandler.c ****         CyBle_RscscWriteResponseEventHandler(eventParam);
 517:.\Generated_Source\PSoC4/BLE_eventHandler.c ****     }
 518:.\Generated_Source\PSoC4/BLE_eventHandler.c **** #endif /* CYBLE_RSCS_CLIENT */
 519:.\Generated_Source\PSoC4/BLE_eventHandler.c **** 
 520:.\Generated_Source\PSoC4/BLE_eventHandler.c **** #ifdef CYBLE_SCPS_CLIENT
 521:.\Generated_Source\PSoC4/BLE_eventHandler.c ****     if((cyBle_eventHandlerFlag & CYBLE_CALLBACK) != 0u)
 522:.\Generated_Source\PSoC4/BLE_eventHandler.c ****     {
 523:.\Generated_Source\PSoC4/BLE_eventHandler.c ****         CyBle_ScpscWriteResponseEventHandler(eventParam);
 524:.\Generated_Source\PSoC4/BLE_eventHandler.c ****     }
 525:.\Generated_Source\PSoC4/BLE_eventHandler.c **** #endif /* CYBLE_SCPS_CLIENT */
 526:.\Generated_Source\PSoC4/BLE_eventHandler.c **** 
 527:.\Generated_Source\PSoC4/BLE_eventHandler.c **** #ifdef CYBLE_TPS_CLIENT
 528:.\Generated_Source\PSoC4/BLE_eventHandler.c ****     if((cyBle_eventHandlerFlag & CYBLE_CALLBACK) != 0u)
 529:.\Generated_Source\PSoC4/BLE_eventHandler.c ****     {
 530:.\Generated_Source\PSoC4/BLE_eventHandler.c ****         CyBle_TpscWriteResponseEventHandler(eventParam);
 531:.\Generated_Source\PSoC4/BLE_eventHandler.c ****     }
 532:.\Generated_Source\PSoC4/BLE_eventHandler.c **** #endif /* CYBLE_TPS_CLIENT */
 533:.\Generated_Source\PSoC4/BLE_eventHandler.c **** 
 534:.\Generated_Source\PSoC4/BLE_eventHandler.c **** #ifdef CYBLE_UDS_CLIENT
 535:.\Generated_Source\PSoC4/BLE_eventHandler.c ****     if((cyBle_eventHandlerFlag & CYBLE_CALLBACK) != 0u)
 536:.\Generated_Source\PSoC4/BLE_eventHandler.c ****     {
 537:.\Generated_Source\PSoC4/BLE_eventHandler.c ****         CyBle_UdscWriteResponseEventHandler(eventParam);
 538:.\Generated_Source\PSoC4/BLE_eventHandler.c ****     }
 539:.\Generated_Source\PSoC4/BLE_eventHandler.c **** #endif /* CYBLE_UDS_CLIENT */
 540:.\Generated_Source\PSoC4/BLE_eventHandler.c **** }
  67              		.loc 1 540 0
  68 0008 BD46     		mov	sp, r7
  69 000a 02B0     		add	sp, sp, #8
  70              		@ sp needed
  71 000c 80BD     		pop	{r7, pc}
  72              		.cfi_endproc
  73              	.LFE2:
  74              		.size	CyBle_GattcWriteResponseEventHandler, .-CyBle_GattcWriteResponseEventHandler
  75 000e C046     		.section	.text.CyBle_NotificationEventHandler,"ax",%progbits
  76              		.align	2
  77              		.code	16
  78              		.thumb_func
  79              		.type	CyBle_NotificationEventHandler, %function
  80              	CyBle_NotificationEventHandler:
  81              	.LFB3:
 541:.\Generated_Source\PSoC4/BLE_eventHandler.c **** 
 542:.\Generated_Source\PSoC4/BLE_eventHandler.c **** 
 543:.\Generated_Source\PSoC4/BLE_eventHandler.c **** /******************************************************************************    
 544:.\Generated_Source\PSoC4/BLE_eventHandler.c **** ##Function Name: CyBle_NotificationEventHandler
 545:.\Generated_Source\PSoC4/BLE_eventHandler.c **** *******************************************************************************
 546:.\Generated_Source\PSoC4/BLE_eventHandler.c **** 
ARM GAS  C:\Users\Evan\AppData\Local\Temp\ccmgTxtA.s 			page 12


 547:.\Generated_Source\PSoC4/BLE_eventHandler.c **** Summary:
 548:.\Generated_Source\PSoC4/BLE_eventHandler.c ****  Handles the Notification event from BLE stack.
 549:.\Generated_Source\PSoC4/BLE_eventHandler.c **** 
 550:.\Generated_Source\PSoC4/BLE_eventHandler.c **** Parameters:
 551:.\Generated_Source\PSoC4/BLE_eventHandler.c ****  CYBLE_GATTC_HANDLE_VALUE_NTF_PARAM_T * eventParam - event parameter
 552:.\Generated_Source\PSoC4/BLE_eventHandler.c **** 
 553:.\Generated_Source\PSoC4/BLE_eventHandler.c **** Return:
 554:.\Generated_Source\PSoC4/BLE_eventHandler.c ****  None
 555:.\Generated_Source\PSoC4/BLE_eventHandler.c **** 
 556:.\Generated_Source\PSoC4/BLE_eventHandler.c **** ******************************************************************************/
 557:.\Generated_Source\PSoC4/BLE_eventHandler.c **** static void CyBle_NotificationEventHandler(CYBLE_GATTC_HANDLE_VALUE_NTF_PARAM_T *eventParam)
 558:.\Generated_Source\PSoC4/BLE_eventHandler.c **** {
  82              		.loc 1 558 0
  83              		.cfi_startproc
  84 0000 80B5     		push	{r7, lr}
  85              		.cfi_def_cfa_offset 8
  86              		.cfi_offset 7, -8
  87              		.cfi_offset 14, -4
  88 0002 82B0     		sub	sp, sp, #8
  89              		.cfi_def_cfa_offset 16
  90 0004 00AF     		add	r7, sp, #0
  91              		.cfi_def_cfa_register 7
  92 0006 7860     		str	r0, [r7, #4]
 559:.\Generated_Source\PSoC4/BLE_eventHandler.c **** #ifdef CYBLE_ANS_CLIENT
 560:.\Generated_Source\PSoC4/BLE_eventHandler.c ****     CyBle_AnscNotificationEventHandler(eventParam);
 561:.\Generated_Source\PSoC4/BLE_eventHandler.c **** #endif /* CYBLE_ANS_CLIENT */
 562:.\Generated_Source\PSoC4/BLE_eventHandler.c **** #ifdef CYBLE_BAS_CLIENT
 563:.\Generated_Source\PSoC4/BLE_eventHandler.c ****     if((cyBle_eventHandlerFlag & CYBLE_CALLBACK) != 0u)
 564:.\Generated_Source\PSoC4/BLE_eventHandler.c ****     {
 565:.\Generated_Source\PSoC4/BLE_eventHandler.c ****         CyBle_BascNotificationEventHandler(eventParam);
 566:.\Generated_Source\PSoC4/BLE_eventHandler.c ****     }
 567:.\Generated_Source\PSoC4/BLE_eventHandler.c **** #endif /* CYBLE_BAS_CLIENT */
 568:.\Generated_Source\PSoC4/BLE_eventHandler.c **** #ifdef CYBLE_BLS_CLIENT
 569:.\Generated_Source\PSoC4/BLE_eventHandler.c ****     if((cyBle_eventHandlerFlag & CYBLE_CALLBACK) != 0u)
 570:.\Generated_Source\PSoC4/BLE_eventHandler.c ****     {
 571:.\Generated_Source\PSoC4/BLE_eventHandler.c ****         CyBle_BlscNotificationEventHandler(eventParam);
 572:.\Generated_Source\PSoC4/BLE_eventHandler.c ****     }
 573:.\Generated_Source\PSoC4/BLE_eventHandler.c **** #endif /* CYBLE_BLS_CLIENT */
 574:.\Generated_Source\PSoC4/BLE_eventHandler.c **** #ifdef CYBLE_CGMS_CLIENT
 575:.\Generated_Source\PSoC4/BLE_eventHandler.c ****     if((cyBle_eventHandlerFlag & CYBLE_CALLBACK) != 0u)
 576:.\Generated_Source\PSoC4/BLE_eventHandler.c ****     {
 577:.\Generated_Source\PSoC4/BLE_eventHandler.c ****         CyBle_CgmscNotificationEventHandler(eventParam);
 578:.\Generated_Source\PSoC4/BLE_eventHandler.c ****     }
 579:.\Generated_Source\PSoC4/BLE_eventHandler.c **** #endif /* CYBLE_CGMS_CLIENT */
 580:.\Generated_Source\PSoC4/BLE_eventHandler.c **** #ifdef CYBLE_CPS_CLIENT
 581:.\Generated_Source\PSoC4/BLE_eventHandler.c ****     if((cyBle_eventHandlerFlag & CYBLE_CALLBACK) != 0u)
 582:.\Generated_Source\PSoC4/BLE_eventHandler.c ****     {
 583:.\Generated_Source\PSoC4/BLE_eventHandler.c ****         CyBle_CpscNotificationEventHandler(eventParam);
 584:.\Generated_Source\PSoC4/BLE_eventHandler.c ****     }
 585:.\Generated_Source\PSoC4/BLE_eventHandler.c **** #endif /* CYBLE_CPS_CLIENT */
 586:.\Generated_Source\PSoC4/BLE_eventHandler.c **** #ifdef CYBLE_CSCS_CLIENT
 587:.\Generated_Source\PSoC4/BLE_eventHandler.c ****     if((cyBle_eventHandlerFlag & CYBLE_CALLBACK) != 0u)
 588:.\Generated_Source\PSoC4/BLE_eventHandler.c ****     {
 589:.\Generated_Source\PSoC4/BLE_eventHandler.c ****         CyBle_CscscNotificationEventHandler(eventParam);
 590:.\Generated_Source\PSoC4/BLE_eventHandler.c ****     }
 591:.\Generated_Source\PSoC4/BLE_eventHandler.c **** #endif /* CYBLE_CSCS_CLIENT */
 592:.\Generated_Source\PSoC4/BLE_eventHandler.c **** #ifdef CYBLE_CTS_CLIENT
ARM GAS  C:\Users\Evan\AppData\Local\Temp\ccmgTxtA.s 			page 13


 593:.\Generated_Source\PSoC4/BLE_eventHandler.c ****     if((cyBle_eventHandlerFlag & CYBLE_CALLBACK) != 0u)
 594:.\Generated_Source\PSoC4/BLE_eventHandler.c ****     {
 595:.\Generated_Source\PSoC4/BLE_eventHandler.c ****         CyBle_CtscNotificationEventHandler(eventParam);
 596:.\Generated_Source\PSoC4/BLE_eventHandler.c ****     }
 597:.\Generated_Source\PSoC4/BLE_eventHandler.c **** #endif /* CYBLE_CTS_CLIENT */
 598:.\Generated_Source\PSoC4/BLE_eventHandler.c **** #ifdef CYBLE_GLS_CLIENT
 599:.\Generated_Source\PSoC4/BLE_eventHandler.c ****     if((cyBle_eventHandlerFlag & CYBLE_CALLBACK) != 0u)
 600:.\Generated_Source\PSoC4/BLE_eventHandler.c ****     {
 601:.\Generated_Source\PSoC4/BLE_eventHandler.c ****         CyBle_GlscNotificationEventHandler(eventParam);
 602:.\Generated_Source\PSoC4/BLE_eventHandler.c ****     }
 603:.\Generated_Source\PSoC4/BLE_eventHandler.c **** #endif /* CYBLE_GLS_CLIENT */
 604:.\Generated_Source\PSoC4/BLE_eventHandler.c **** #ifdef CYBLE_HIDS_CLIENT
 605:.\Generated_Source\PSoC4/BLE_eventHandler.c ****     if((cyBle_eventHandlerFlag & CYBLE_CALLBACK) != 0u)
 606:.\Generated_Source\PSoC4/BLE_eventHandler.c ****     {
 607:.\Generated_Source\PSoC4/BLE_eventHandler.c ****         CyBle_HidscNotificationEventHandler(eventParam);
 608:.\Generated_Source\PSoC4/BLE_eventHandler.c ****     }
 609:.\Generated_Source\PSoC4/BLE_eventHandler.c **** #endif /* CYBLE_HIDS_CLIENT */
 610:.\Generated_Source\PSoC4/BLE_eventHandler.c **** #ifdef CYBLE_HRS_CLIENT
 611:.\Generated_Source\PSoC4/BLE_eventHandler.c ****     if((cyBle_eventHandlerFlag & CYBLE_CALLBACK) != 0u)
 612:.\Generated_Source\PSoC4/BLE_eventHandler.c ****     {
 613:.\Generated_Source\PSoC4/BLE_eventHandler.c ****         CyBle_HrscNotificationEventHandler(eventParam);
 614:.\Generated_Source\PSoC4/BLE_eventHandler.c ****     }
 615:.\Generated_Source\PSoC4/BLE_eventHandler.c **** #endif /* CYBLE_HRS_CLIENT */
 616:.\Generated_Source\PSoC4/BLE_eventHandler.c **** #ifdef CYBLE_HTS_CLIENT
 617:.\Generated_Source\PSoC4/BLE_eventHandler.c ****     if((cyBle_eventHandlerFlag & CYBLE_CALLBACK) != 0u)
 618:.\Generated_Source\PSoC4/BLE_eventHandler.c ****     {
 619:.\Generated_Source\PSoC4/BLE_eventHandler.c ****         CyBle_HtscNotificationEventHandler(eventParam);
 620:.\Generated_Source\PSoC4/BLE_eventHandler.c ****     }
 621:.\Generated_Source\PSoC4/BLE_eventHandler.c **** #endif /* CYBLE_HTS_CLIENT */
 622:.\Generated_Source\PSoC4/BLE_eventHandler.c **** #ifdef CYBLE_LNS_CLIENT
 623:.\Generated_Source\PSoC4/BLE_eventHandler.c ****     if((cyBle_eventHandlerFlag & CYBLE_CALLBACK) != 0u)
 624:.\Generated_Source\PSoC4/BLE_eventHandler.c ****     {
 625:.\Generated_Source\PSoC4/BLE_eventHandler.c ****         CyBle_LnscNotificationEventHandler(eventParam);
 626:.\Generated_Source\PSoC4/BLE_eventHandler.c ****     }
 627:.\Generated_Source\PSoC4/BLE_eventHandler.c **** #endif /* CYBLE_LNS_CLIENT */
 628:.\Generated_Source\PSoC4/BLE_eventHandler.c **** #ifdef CYBLE_PASS_CLIENT
 629:.\Generated_Source\PSoC4/BLE_eventHandler.c ****     if((cyBle_eventHandlerFlag & CYBLE_CALLBACK) != 0u)
 630:.\Generated_Source\PSoC4/BLE_eventHandler.c ****     {
 631:.\Generated_Source\PSoC4/BLE_eventHandler.c ****         CyBle_PasscNotificationEventHandler(eventParam);
 632:.\Generated_Source\PSoC4/BLE_eventHandler.c ****     }
 633:.\Generated_Source\PSoC4/BLE_eventHandler.c **** #endif /* CYBLE_PASS_CLIENT */
 634:.\Generated_Source\PSoC4/BLE_eventHandler.c **** #ifdef CYBLE_RSCS_CLIENT
 635:.\Generated_Source\PSoC4/BLE_eventHandler.c ****     if((cyBle_eventHandlerFlag & CYBLE_CALLBACK) != 0u)
 636:.\Generated_Source\PSoC4/BLE_eventHandler.c ****     {
 637:.\Generated_Source\PSoC4/BLE_eventHandler.c ****         CyBle_RscscNotificationEventHandler(eventParam);
 638:.\Generated_Source\PSoC4/BLE_eventHandler.c ****     }
 639:.\Generated_Source\PSoC4/BLE_eventHandler.c **** #endif /* CYBLE_RSCS_CLIENT */
 640:.\Generated_Source\PSoC4/BLE_eventHandler.c **** #ifdef CYBLE_SCPS_CLIENT
 641:.\Generated_Source\PSoC4/BLE_eventHandler.c ****     if((cyBle_eventHandlerFlag & CYBLE_CALLBACK) != 0u)
 642:.\Generated_Source\PSoC4/BLE_eventHandler.c ****     {
 643:.\Generated_Source\PSoC4/BLE_eventHandler.c ****         CyBle_ScpscNotificationEventHandler(eventParam);
 644:.\Generated_Source\PSoC4/BLE_eventHandler.c ****     }
 645:.\Generated_Source\PSoC4/BLE_eventHandler.c **** #endif /* CYBLE_SCPS_CLIENT */
 646:.\Generated_Source\PSoC4/BLE_eventHandler.c **** #ifdef CYBLE_TPS_CLIENT
 647:.\Generated_Source\PSoC4/BLE_eventHandler.c ****     if((cyBle_eventHandlerFlag & CYBLE_CALLBACK) != 0u)
 648:.\Generated_Source\PSoC4/BLE_eventHandler.c ****     {
 649:.\Generated_Source\PSoC4/BLE_eventHandler.c ****         CyBle_TpscNotificationEventHandler(eventParam);
ARM GAS  C:\Users\Evan\AppData\Local\Temp\ccmgTxtA.s 			page 14


 650:.\Generated_Source\PSoC4/BLE_eventHandler.c ****     }
 651:.\Generated_Source\PSoC4/BLE_eventHandler.c **** #endif /* CYBLE_TPS_CLIENT */
 652:.\Generated_Source\PSoC4/BLE_eventHandler.c **** #ifdef CYBLE_UDS_CLIENT
 653:.\Generated_Source\PSoC4/BLE_eventHandler.c ****     if((cyBle_eventHandlerFlag & CYBLE_CALLBACK) != 0u)
 654:.\Generated_Source\PSoC4/BLE_eventHandler.c ****     {
 655:.\Generated_Source\PSoC4/BLE_eventHandler.c ****         CyBle_UdscNotificationEventHandler(eventParam);
 656:.\Generated_Source\PSoC4/BLE_eventHandler.c ****     }
 657:.\Generated_Source\PSoC4/BLE_eventHandler.c **** #endif /* CYBLE_UDS_CLIENT */
 658:.\Generated_Source\PSoC4/BLE_eventHandler.c **** }
  93              		.loc 1 658 0
  94 0008 BD46     		mov	sp, r7
  95 000a 02B0     		add	sp, sp, #8
  96              		@ sp needed
  97 000c 80BD     		pop	{r7, pc}
  98              		.cfi_endproc
  99              	.LFE3:
 100              		.size	CyBle_NotificationEventHandler, .-CyBle_NotificationEventHandler
 101              		.section	.text.CyBle_IndicationEventHandler,"ax",%progbits
 102              		.align	2
 103              		.code	16
 104              		.thumb_func
 105              		.type	CyBle_IndicationEventHandler, %function
 106              	CyBle_IndicationEventHandler:
 107              	.LFB4:
 659:.\Generated_Source\PSoC4/BLE_eventHandler.c **** 
 660:.\Generated_Source\PSoC4/BLE_eventHandler.c **** 
 661:.\Generated_Source\PSoC4/BLE_eventHandler.c **** /******************************************************************************    
 662:.\Generated_Source\PSoC4/BLE_eventHandler.c **** ##Function Name: CyBle_IndicationEventHandler
 663:.\Generated_Source\PSoC4/BLE_eventHandler.c **** *******************************************************************************
 664:.\Generated_Source\PSoC4/BLE_eventHandler.c **** 
 665:.\Generated_Source\PSoC4/BLE_eventHandler.c **** Summary:
 666:.\Generated_Source\PSoC4/BLE_eventHandler.c ****  Handles the Indication event from BLE stack.
 667:.\Generated_Source\PSoC4/BLE_eventHandler.c **** 
 668:.\Generated_Source\PSoC4/BLE_eventHandler.c **** Parameters:
 669:.\Generated_Source\PSoC4/BLE_eventHandler.c ****  CYBLE_GATTC_HANDLE_VALUE_IND_PARAM_T * eventParam - event parameter
 670:.\Generated_Source\PSoC4/BLE_eventHandler.c **** 
 671:.\Generated_Source\PSoC4/BLE_eventHandler.c **** Return:
 672:.\Generated_Source\PSoC4/BLE_eventHandler.c ****  None
 673:.\Generated_Source\PSoC4/BLE_eventHandler.c **** 
 674:.\Generated_Source\PSoC4/BLE_eventHandler.c **** ******************************************************************************/
 675:.\Generated_Source\PSoC4/BLE_eventHandler.c **** static void CyBle_IndicationEventHandler(CYBLE_GATTC_HANDLE_VALUE_IND_PARAM_T *eventParam)
 676:.\Generated_Source\PSoC4/BLE_eventHandler.c **** {
 108              		.loc 1 676 0
 109              		.cfi_startproc
 110 0000 80B5     		push	{r7, lr}
 111              		.cfi_def_cfa_offset 8
 112              		.cfi_offset 7, -8
 113              		.cfi_offset 14, -4
 114 0002 82B0     		sub	sp, sp, #8
 115              		.cfi_def_cfa_offset 16
 116 0004 00AF     		add	r7, sp, #0
 117              		.cfi_def_cfa_register 7
 118 0006 7860     		str	r0, [r7, #4]
 677:.\Generated_Source\PSoC4/BLE_eventHandler.c **** #ifdef CYBLE_BLS_CLIENT
 678:.\Generated_Source\PSoC4/BLE_eventHandler.c ****     if((cyBle_eventHandlerFlag & CYBLE_CALLBACK) != 0u)
 679:.\Generated_Source\PSoC4/BLE_eventHandler.c ****     {
 680:.\Generated_Source\PSoC4/BLE_eventHandler.c ****         CyBle_BlscIndicationEventHandler(eventParam);
ARM GAS  C:\Users\Evan\AppData\Local\Temp\ccmgTxtA.s 			page 15


 681:.\Generated_Source\PSoC4/BLE_eventHandler.c ****     }
 682:.\Generated_Source\PSoC4/BLE_eventHandler.c **** #endif /* CYBLE_BLS_CLIENT */
 683:.\Generated_Source\PSoC4/BLE_eventHandler.c **** #ifdef CYBLE_CGMS_CLIENT
 684:.\Generated_Source\PSoC4/BLE_eventHandler.c ****     if((cyBle_eventHandlerFlag & CYBLE_CALLBACK) != 0u)
 685:.\Generated_Source\PSoC4/BLE_eventHandler.c ****     {
 686:.\Generated_Source\PSoC4/BLE_eventHandler.c ****         CyBle_CgmscIndicationEventHandler(eventParam);
 687:.\Generated_Source\PSoC4/BLE_eventHandler.c ****     }
 688:.\Generated_Source\PSoC4/BLE_eventHandler.c **** #endif /* CYBLE_CGMS_CLIENT */
 689:.\Generated_Source\PSoC4/BLE_eventHandler.c **** #ifdef CYBLE_CPS_CLIENT
 690:.\Generated_Source\PSoC4/BLE_eventHandler.c ****     if((cyBle_eventHandlerFlag & CYBLE_CALLBACK) != 0u)
 691:.\Generated_Source\PSoC4/BLE_eventHandler.c ****     {
 692:.\Generated_Source\PSoC4/BLE_eventHandler.c ****         CyBle_CpscIndicationEventHandler(eventParam);
 693:.\Generated_Source\PSoC4/BLE_eventHandler.c ****     }
 694:.\Generated_Source\PSoC4/BLE_eventHandler.c **** #endif /* CYBLE_CPS_CLIENT */
 695:.\Generated_Source\PSoC4/BLE_eventHandler.c **** #ifdef CYBLE_CSCS_CLIENT
 696:.\Generated_Source\PSoC4/BLE_eventHandler.c ****     if((cyBle_eventHandlerFlag & CYBLE_CALLBACK) != 0u)
 697:.\Generated_Source\PSoC4/BLE_eventHandler.c ****     {
 698:.\Generated_Source\PSoC4/BLE_eventHandler.c ****         CyBle_CscscIndicationEventHandler(eventParam);
 699:.\Generated_Source\PSoC4/BLE_eventHandler.c ****     }
 700:.\Generated_Source\PSoC4/BLE_eventHandler.c **** #endif /* CYBLE_CSCS_CLIENT */
 701:.\Generated_Source\PSoC4/BLE_eventHandler.c **** #ifdef CYBLE_GLS_CLIENT
 702:.\Generated_Source\PSoC4/BLE_eventHandler.c ****     if((cyBle_eventHandlerFlag & CYBLE_CALLBACK) != 0u)
 703:.\Generated_Source\PSoC4/BLE_eventHandler.c ****     {
 704:.\Generated_Source\PSoC4/BLE_eventHandler.c ****         CyBle_GlscIndicationEventHandler(eventParam);
 705:.\Generated_Source\PSoC4/BLE_eventHandler.c ****     }
 706:.\Generated_Source\PSoC4/BLE_eventHandler.c **** #endif /* CYBLE_GLS_CLIENT */
 707:.\Generated_Source\PSoC4/BLE_eventHandler.c **** #ifdef CYBLE_HTS_CLIENT
 708:.\Generated_Source\PSoC4/BLE_eventHandler.c ****     if((cyBle_eventHandlerFlag & CYBLE_CALLBACK) != 0u)
 709:.\Generated_Source\PSoC4/BLE_eventHandler.c ****     {
 710:.\Generated_Source\PSoC4/BLE_eventHandler.c ****         CyBle_HtscIndicationEventHandler(eventParam);
 711:.\Generated_Source\PSoC4/BLE_eventHandler.c ****     }
 712:.\Generated_Source\PSoC4/BLE_eventHandler.c **** #endif /* CYBLE_HTS_CLIENT */
 713:.\Generated_Source\PSoC4/BLE_eventHandler.c **** #ifdef CYBLE_LNS_CLIENT
 714:.\Generated_Source\PSoC4/BLE_eventHandler.c ****     if((cyBle_eventHandlerFlag & CYBLE_CALLBACK) != 0u)
 715:.\Generated_Source\PSoC4/BLE_eventHandler.c ****     {
 716:.\Generated_Source\PSoC4/BLE_eventHandler.c ****         CyBle_LnscIndicationEventHandler(eventParam);
 717:.\Generated_Source\PSoC4/BLE_eventHandler.c ****     }
 718:.\Generated_Source\PSoC4/BLE_eventHandler.c **** #endif /* CYBLE_LNS_CLIENT */
 719:.\Generated_Source\PSoC4/BLE_eventHandler.c **** #ifdef CYBLE_RSCS_CLIENT
 720:.\Generated_Source\PSoC4/BLE_eventHandler.c ****     if((cyBle_eventHandlerFlag & CYBLE_CALLBACK) != 0u)
 721:.\Generated_Source\PSoC4/BLE_eventHandler.c ****     {
 722:.\Generated_Source\PSoC4/BLE_eventHandler.c ****         CyBle_RscscIndicationEventHandler(eventParam);
 723:.\Generated_Source\PSoC4/BLE_eventHandler.c ****     }
 724:.\Generated_Source\PSoC4/BLE_eventHandler.c **** #endif /* CYBLE_RSCS_CLIENT */
 725:.\Generated_Source\PSoC4/BLE_eventHandler.c **** #ifdef CYBLE_UDS_CLIENT
 726:.\Generated_Source\PSoC4/BLE_eventHandler.c ****     if((cyBle_eventHandlerFlag & CYBLE_CALLBACK) != 0u)
 727:.\Generated_Source\PSoC4/BLE_eventHandler.c ****     {
 728:.\Generated_Source\PSoC4/BLE_eventHandler.c ****         CyBle_UdscIndicationEventHandler(eventParam);
 729:.\Generated_Source\PSoC4/BLE_eventHandler.c ****     }
 730:.\Generated_Source\PSoC4/BLE_eventHandler.c **** #endif /* CYBLE_UDS_CLIENT */
 731:.\Generated_Source\PSoC4/BLE_eventHandler.c **** }
 119              		.loc 1 731 0
 120 0008 BD46     		mov	sp, r7
 121 000a 02B0     		add	sp, sp, #8
 122              		@ sp needed
 123 000c 80BD     		pop	{r7, pc}
 124              		.cfi_endproc
ARM GAS  C:\Users\Evan\AppData\Local\Temp\ccmgTxtA.s 			page 16


 125              	.LFE4:
 126              		.size	CyBle_IndicationEventHandler, .-CyBle_IndicationEventHandler
 127              		.section	.text.CyBle_ReadResponseEventHandler,"ax",%progbits
 128              		.align	2
 129              		.code	16
 130              		.thumb_func
 131              		.type	CyBle_ReadResponseEventHandler, %function
 132              	CyBle_ReadResponseEventHandler:
 133              	.LFB5:
 732:.\Generated_Source\PSoC4/BLE_eventHandler.c **** 
 733:.\Generated_Source\PSoC4/BLE_eventHandler.c **** 
 734:.\Generated_Source\PSoC4/BLE_eventHandler.c **** 
 735:.\Generated_Source\PSoC4/BLE_eventHandler.c **** /******************************************************************************    
 736:.\Generated_Source\PSoC4/BLE_eventHandler.c **** ##Function Name: CyBle_ReadResponseEventHandler
 737:.\Generated_Source\PSoC4/BLE_eventHandler.c **** *******************************************************************************
 738:.\Generated_Source\PSoC4/BLE_eventHandler.c **** 
 739:.\Generated_Source\PSoC4/BLE_eventHandler.c **** Summary:
 740:.\Generated_Source\PSoC4/BLE_eventHandler.c ****  Handles the Read Response event from BLE stack.
 741:.\Generated_Source\PSoC4/BLE_eventHandler.c **** 
 742:.\Generated_Source\PSoC4/BLE_eventHandler.c **** Parameters:
 743:.\Generated_Source\PSoC4/BLE_eventHandler.c ****  CYBLE_GATTC_READ_RSP_PARAM_T * eventParam - event parameter
 744:.\Generated_Source\PSoC4/BLE_eventHandler.c **** 
 745:.\Generated_Source\PSoC4/BLE_eventHandler.c **** Return:
 746:.\Generated_Source\PSoC4/BLE_eventHandler.c ****  None
 747:.\Generated_Source\PSoC4/BLE_eventHandler.c **** 
 748:.\Generated_Source\PSoC4/BLE_eventHandler.c **** ******************************************************************************/
 749:.\Generated_Source\PSoC4/BLE_eventHandler.c **** static void CyBle_ReadResponseEventHandler(CYBLE_GATTC_READ_RSP_PARAM_T *eventParam)
 750:.\Generated_Source\PSoC4/BLE_eventHandler.c **** {
 134              		.loc 1 750 0
 135              		.cfi_startproc
 136 0000 80B5     		push	{r7, lr}
 137              		.cfi_def_cfa_offset 8
 138              		.cfi_offset 7, -8
 139              		.cfi_offset 14, -4
 140 0002 82B0     		sub	sp, sp, #8
 141              		.cfi_def_cfa_offset 16
 142 0004 00AF     		add	r7, sp, #0
 143              		.cfi_def_cfa_register 7
 144 0006 7860     		str	r0, [r7, #4]
 751:.\Generated_Source\PSoC4/BLE_eventHandler.c **** #ifdef CYBLE_ANS_CLIENT
 752:.\Generated_Source\PSoC4/BLE_eventHandler.c ****     CyBle_AnscReadResponseEventHandler(eventParam);
 753:.\Generated_Source\PSoC4/BLE_eventHandler.c **** #endif /* CYBLE_ANS_CLIENT */
 754:.\Generated_Source\PSoC4/BLE_eventHandler.c **** #ifdef CYBLE_BAS_CLIENT
 755:.\Generated_Source\PSoC4/BLE_eventHandler.c ****     if((cyBle_eventHandlerFlag & CYBLE_CALLBACK) != 0u)
 756:.\Generated_Source\PSoC4/BLE_eventHandler.c ****     {
 757:.\Generated_Source\PSoC4/BLE_eventHandler.c ****         CyBle_BascReadResponseEventHandler(eventParam);
 758:.\Generated_Source\PSoC4/BLE_eventHandler.c ****     }
 759:.\Generated_Source\PSoC4/BLE_eventHandler.c **** #endif /* CYBLE_BAS_CLIENT */
 760:.\Generated_Source\PSoC4/BLE_eventHandler.c **** #ifdef CYBLE_BLS_CLIENT
 761:.\Generated_Source\PSoC4/BLE_eventHandler.c ****     if((cyBle_eventHandlerFlag & CYBLE_CALLBACK) != 0u)
 762:.\Generated_Source\PSoC4/BLE_eventHandler.c ****     {
 763:.\Generated_Source\PSoC4/BLE_eventHandler.c ****         CyBle_BlscReadResponseEventHandler(eventParam);
 764:.\Generated_Source\PSoC4/BLE_eventHandler.c ****     }
 765:.\Generated_Source\PSoC4/BLE_eventHandler.c **** #endif /* CYBLE_BLS_CLIENT */
 766:.\Generated_Source\PSoC4/BLE_eventHandler.c **** #ifdef CYBLE_CGMS_CLIENT
 767:.\Generated_Source\PSoC4/BLE_eventHandler.c ****     if((cyBle_eventHandlerFlag & CYBLE_CALLBACK) != 0u)
 768:.\Generated_Source\PSoC4/BLE_eventHandler.c ****     {
ARM GAS  C:\Users\Evan\AppData\Local\Temp\ccmgTxtA.s 			page 17


 769:.\Generated_Source\PSoC4/BLE_eventHandler.c ****         CyBle_CgmscReadResponseEventHandler(eventParam);
 770:.\Generated_Source\PSoC4/BLE_eventHandler.c ****     }
 771:.\Generated_Source\PSoC4/BLE_eventHandler.c **** #endif /* CYBLE_CGMS_CLIENT */
 772:.\Generated_Source\PSoC4/BLE_eventHandler.c **** #ifdef CYBLE_CPS_CLIENT
 773:.\Generated_Source\PSoC4/BLE_eventHandler.c ****     if((cyBle_eventHandlerFlag & CYBLE_CALLBACK) != 0u)
 774:.\Generated_Source\PSoC4/BLE_eventHandler.c ****     {
 775:.\Generated_Source\PSoC4/BLE_eventHandler.c ****         CyBle_CpscReadResponseEventHandler(eventParam);
 776:.\Generated_Source\PSoC4/BLE_eventHandler.c ****     }
 777:.\Generated_Source\PSoC4/BLE_eventHandler.c **** #endif /* CYBLE_CPS_CLIENT */
 778:.\Generated_Source\PSoC4/BLE_eventHandler.c **** #ifdef CYBLE_CSCS_CLIENT
 779:.\Generated_Source\PSoC4/BLE_eventHandler.c ****     if((cyBle_eventHandlerFlag & CYBLE_CALLBACK) != 0u)
 780:.\Generated_Source\PSoC4/BLE_eventHandler.c ****     {
 781:.\Generated_Source\PSoC4/BLE_eventHandler.c ****         CyBle_CscscReadResponseEventHandler(eventParam);
 782:.\Generated_Source\PSoC4/BLE_eventHandler.c ****     }
 783:.\Generated_Source\PSoC4/BLE_eventHandler.c **** #endif /* CYBLE_CSCS_CLIENT */
 784:.\Generated_Source\PSoC4/BLE_eventHandler.c **** #ifdef CYBLE_CTS_CLIENT
 785:.\Generated_Source\PSoC4/BLE_eventHandler.c ****     if((cyBle_eventHandlerFlag & CYBLE_CALLBACK) != 0u)
 786:.\Generated_Source\PSoC4/BLE_eventHandler.c ****     {
 787:.\Generated_Source\PSoC4/BLE_eventHandler.c ****         CyBle_CtscReadResponseEventHandler(eventParam);
 788:.\Generated_Source\PSoC4/BLE_eventHandler.c ****     }
 789:.\Generated_Source\PSoC4/BLE_eventHandler.c **** #endif /* CYBLE_BAS_CLIENT */
 790:.\Generated_Source\PSoC4/BLE_eventHandler.c **** #ifdef CYBLE_DIS_CLIENT
 791:.\Generated_Source\PSoC4/BLE_eventHandler.c ****     if((cyBle_eventHandlerFlag & CYBLE_CALLBACK) != 0u)
 792:.\Generated_Source\PSoC4/BLE_eventHandler.c ****     {
 793:.\Generated_Source\PSoC4/BLE_eventHandler.c ****         CyBle_DiscReadResponseEventHandler(eventParam);
 794:.\Generated_Source\PSoC4/BLE_eventHandler.c ****     }
 795:.\Generated_Source\PSoC4/BLE_eventHandler.c **** #endif /* CYBLE_DIS_CLIENT */
 796:.\Generated_Source\PSoC4/BLE_eventHandler.c **** #ifdef CYBLE_GLS_CLIENT
 797:.\Generated_Source\PSoC4/BLE_eventHandler.c ****     if((cyBle_eventHandlerFlag & CYBLE_CALLBACK) != 0u)
 798:.\Generated_Source\PSoC4/BLE_eventHandler.c ****     {
 799:.\Generated_Source\PSoC4/BLE_eventHandler.c ****         CyBle_GlscReadResponseEventHandler(eventParam);
 800:.\Generated_Source\PSoC4/BLE_eventHandler.c ****     }
 801:.\Generated_Source\PSoC4/BLE_eventHandler.c **** #endif /* CYBLE_GLS_CLIENT */
 802:.\Generated_Source\PSoC4/BLE_eventHandler.c **** #ifdef CYBLE_HIDS_CLIENT
 803:.\Generated_Source\PSoC4/BLE_eventHandler.c ****     if((cyBle_eventHandlerFlag & CYBLE_CALLBACK) != 0u)
 804:.\Generated_Source\PSoC4/BLE_eventHandler.c ****     {
 805:.\Generated_Source\PSoC4/BLE_eventHandler.c ****         CyBle_HidscReadResponseEventHandler(eventParam);
 806:.\Generated_Source\PSoC4/BLE_eventHandler.c ****     }
 807:.\Generated_Source\PSoC4/BLE_eventHandler.c **** #endif /* CYBLE_HIDS_CLIENT */
 808:.\Generated_Source\PSoC4/BLE_eventHandler.c **** #ifdef CYBLE_HRS_CLIENT
 809:.\Generated_Source\PSoC4/BLE_eventHandler.c ****     if((cyBle_eventHandlerFlag & CYBLE_CALLBACK) != 0u)
 810:.\Generated_Source\PSoC4/BLE_eventHandler.c ****     {
 811:.\Generated_Source\PSoC4/BLE_eventHandler.c ****         CyBle_HrscReadResponseEventHandler(eventParam);
 812:.\Generated_Source\PSoC4/BLE_eventHandler.c ****     }
 813:.\Generated_Source\PSoC4/BLE_eventHandler.c **** #endif /* CYBLE_HRS_CLIENT */
 814:.\Generated_Source\PSoC4/BLE_eventHandler.c **** #ifdef CYBLE_HTS_CLIENT
 815:.\Generated_Source\PSoC4/BLE_eventHandler.c ****     if((cyBle_eventHandlerFlag & CYBLE_CALLBACK) != 0u)
 816:.\Generated_Source\PSoC4/BLE_eventHandler.c ****     {
 817:.\Generated_Source\PSoC4/BLE_eventHandler.c ****         CyBle_HtscReadResponseEventHandler(eventParam);
 818:.\Generated_Source\PSoC4/BLE_eventHandler.c ****     }
 819:.\Generated_Source\PSoC4/BLE_eventHandler.c **** #endif /* CYBLE_HTS_CLIENT */
 820:.\Generated_Source\PSoC4/BLE_eventHandler.c **** #ifdef CYBLE_LLS_CLIENT
 821:.\Generated_Source\PSoC4/BLE_eventHandler.c ****     if((cyBle_eventHandlerFlag & CYBLE_CALLBACK) != 0u)
 822:.\Generated_Source\PSoC4/BLE_eventHandler.c ****     {
 823:.\Generated_Source\PSoC4/BLE_eventHandler.c ****         CyBle_LlscReadResponseEventHandler(eventParam);
 824:.\Generated_Source\PSoC4/BLE_eventHandler.c ****     }
 825:.\Generated_Source\PSoC4/BLE_eventHandler.c **** #endif /* CYBLE_LLS_CLIENT */
ARM GAS  C:\Users\Evan\AppData\Local\Temp\ccmgTxtA.s 			page 18


 826:.\Generated_Source\PSoC4/BLE_eventHandler.c **** #ifdef CYBLE_LNS_CLIENT
 827:.\Generated_Source\PSoC4/BLE_eventHandler.c ****     if((cyBle_eventHandlerFlag & CYBLE_CALLBACK) != 0u)
 828:.\Generated_Source\PSoC4/BLE_eventHandler.c ****     {
 829:.\Generated_Source\PSoC4/BLE_eventHandler.c ****         CyBle_LnscReadResponseEventHandler(eventParam);
 830:.\Generated_Source\PSoC4/BLE_eventHandler.c ****     }
 831:.\Generated_Source\PSoC4/BLE_eventHandler.c **** #endif /* CYBLE_LNS_CLIENT */
 832:.\Generated_Source\PSoC4/BLE_eventHandler.c **** #ifdef CYBLE_NDCS_CLIENT
 833:.\Generated_Source\PSoC4/BLE_eventHandler.c ****     if((cyBle_eventHandlerFlag & CYBLE_CALLBACK) != 0u)
 834:.\Generated_Source\PSoC4/BLE_eventHandler.c ****     {
 835:.\Generated_Source\PSoC4/BLE_eventHandler.c ****         CyBle_NdcscReadResponseEventHandler(eventParam);
 836:.\Generated_Source\PSoC4/BLE_eventHandler.c ****     }
 837:.\Generated_Source\PSoC4/BLE_eventHandler.c **** #endif /* CYBLE_NDCS_CLIENT */
 838:.\Generated_Source\PSoC4/BLE_eventHandler.c **** #ifdef CYBLE_PASS_CLIENT
 839:.\Generated_Source\PSoC4/BLE_eventHandler.c ****     if((cyBle_eventHandlerFlag & CYBLE_CALLBACK) != 0u)
 840:.\Generated_Source\PSoC4/BLE_eventHandler.c ****     {
 841:.\Generated_Source\PSoC4/BLE_eventHandler.c ****         CyBle_PasscReadResponseEventHandler(eventParam);
 842:.\Generated_Source\PSoC4/BLE_eventHandler.c ****     }
 843:.\Generated_Source\PSoC4/BLE_eventHandler.c **** #endif /* CYBLE_PASS_CLIENT */
 844:.\Generated_Source\PSoC4/BLE_eventHandler.c **** #ifdef CYBLE_RSCS_CLIENT
 845:.\Generated_Source\PSoC4/BLE_eventHandler.c ****     if((cyBle_eventHandlerFlag & CYBLE_CALLBACK) != 0u)
 846:.\Generated_Source\PSoC4/BLE_eventHandler.c ****     {
 847:.\Generated_Source\PSoC4/BLE_eventHandler.c ****         CyBle_RscscReadResponseEventHandler(eventParam);
 848:.\Generated_Source\PSoC4/BLE_eventHandler.c ****     }
 849:.\Generated_Source\PSoC4/BLE_eventHandler.c **** #endif /* CYBLE_RSCS_CLIENT */
 850:.\Generated_Source\PSoC4/BLE_eventHandler.c **** #ifdef CYBLE_RTUS_CLIENT
 851:.\Generated_Source\PSoC4/BLE_eventHandler.c ****     if((cyBle_eventHandlerFlag & CYBLE_CALLBACK) != 0u)
 852:.\Generated_Source\PSoC4/BLE_eventHandler.c ****     {
 853:.\Generated_Source\PSoC4/BLE_eventHandler.c ****         CyBle_RtuscReadResponseEventHandler(eventParam);
 854:.\Generated_Source\PSoC4/BLE_eventHandler.c ****     }
 855:.\Generated_Source\PSoC4/BLE_eventHandler.c **** #endif /* CYBLE_RTUS_CLIENT */
 856:.\Generated_Source\PSoC4/BLE_eventHandler.c **** #ifdef CYBLE_SCPS_CLIENT
 857:.\Generated_Source\PSoC4/BLE_eventHandler.c ****     if((cyBle_eventHandlerFlag & CYBLE_CALLBACK) != 0u)
 858:.\Generated_Source\PSoC4/BLE_eventHandler.c ****     {
 859:.\Generated_Source\PSoC4/BLE_eventHandler.c ****         CyBle_ScpscReadResponseEventHandler(eventParam);
 860:.\Generated_Source\PSoC4/BLE_eventHandler.c ****     }
 861:.\Generated_Source\PSoC4/BLE_eventHandler.c **** #endif /* CYBLE_SCPS_CLIENT */
 862:.\Generated_Source\PSoC4/BLE_eventHandler.c **** #ifdef CYBLE_TPS_CLIENT
 863:.\Generated_Source\PSoC4/BLE_eventHandler.c ****     if((cyBle_eventHandlerFlag & CYBLE_CALLBACK) != 0u)
 864:.\Generated_Source\PSoC4/BLE_eventHandler.c ****     {
 865:.\Generated_Source\PSoC4/BLE_eventHandler.c ****         CyBle_TpscReadResponseEventHandler(eventParam);
 866:.\Generated_Source\PSoC4/BLE_eventHandler.c ****     }
 867:.\Generated_Source\PSoC4/BLE_eventHandler.c **** #endif /* CYBLE_TPS_CLIENT */
 868:.\Generated_Source\PSoC4/BLE_eventHandler.c **** #ifdef CYBLE_UDS_CLIENT
 869:.\Generated_Source\PSoC4/BLE_eventHandler.c ****     if((cyBle_eventHandlerFlag & CYBLE_CALLBACK) != 0u)
 870:.\Generated_Source\PSoC4/BLE_eventHandler.c ****     {
 871:.\Generated_Source\PSoC4/BLE_eventHandler.c ****         CyBle_UdscReadResponseEventHandler(eventParam);
 872:.\Generated_Source\PSoC4/BLE_eventHandler.c ****     }
 873:.\Generated_Source\PSoC4/BLE_eventHandler.c **** #endif /* CYBLE_UDS_CLIENT */
 874:.\Generated_Source\PSoC4/BLE_eventHandler.c **** }
 145              		.loc 1 874 0
 146 0008 BD46     		mov	sp, r7
 147 000a 02B0     		add	sp, sp, #8
 148              		@ sp needed
 149 000c 80BD     		pop	{r7, pc}
 150              		.cfi_endproc
 151              	.LFE5:
 152              		.size	CyBle_ReadResponseEventHandler, .-CyBle_ReadResponseEventHandler
ARM GAS  C:\Users\Evan\AppData\Local\Temp\ccmgTxtA.s 			page 19


 153              		.section	.text.CyBle_GattDisconnectEventHandler,"ax",%progbits
 154              		.align	2
 155              		.code	16
 156              		.thumb_func
 157              		.type	CyBle_GattDisconnectEventHandler, %function
 158              	CyBle_GattDisconnectEventHandler:
 159              	.LFB6:
 875:.\Generated_Source\PSoC4/BLE_eventHandler.c **** #endif /* CYBLE_GATT_ROLE_CLIENT */
 876:.\Generated_Source\PSoC4/BLE_eventHandler.c **** 
 877:.\Generated_Source\PSoC4/BLE_eventHandler.c **** 
 878:.\Generated_Source\PSoC4/BLE_eventHandler.c **** /****************************************************************************** 
 879:.\Generated_Source\PSoC4/BLE_eventHandler.c **** ##Function Name: CyBle_DisconnectEventHandler
 880:.\Generated_Source\PSoC4/BLE_eventHandler.c **** *******************************************************************************
 881:.\Generated_Source\PSoC4/BLE_eventHandler.c **** 
 882:.\Generated_Source\PSoC4/BLE_eventHandler.c **** Summary:
 883:.\Generated_Source\PSoC4/BLE_eventHandler.c ****  Handles the GATT Disconnection event from the BLE stack.
 884:.\Generated_Source\PSoC4/BLE_eventHandler.c **** 
 885:.\Generated_Source\PSoC4/BLE_eventHandler.c **** Parameters:
 886:.\Generated_Source\PSoC4/BLE_eventHandler.c ****  None
 887:.\Generated_Source\PSoC4/BLE_eventHandler.c **** 
 888:.\Generated_Source\PSoC4/BLE_eventHandler.c **** Return:
 889:.\Generated_Source\PSoC4/BLE_eventHandler.c ****  None
 890:.\Generated_Source\PSoC4/BLE_eventHandler.c **** 
 891:.\Generated_Source\PSoC4/BLE_eventHandler.c **** ******************************************************************************/
 892:.\Generated_Source\PSoC4/BLE_eventHandler.c **** static void CyBle_GattDisconnectEventHandler(void)
 893:.\Generated_Source\PSoC4/BLE_eventHandler.c **** {
 160              		.loc 1 893 0
 161              		.cfi_startproc
 162 0000 80B5     		push	{r7, lr}
 163              		.cfi_def_cfa_offset 8
 164              		.cfi_offset 7, -8
 165              		.cfi_offset 14, -4
 166 0002 00AF     		add	r7, sp, #0
 167              		.cfi_def_cfa_register 7
 894:.\Generated_Source\PSoC4/BLE_eventHandler.c ****     cyBle_connHandle.attId = 0u;
 168              		.loc 1 894 0
 169 0004 094B     		ldr	r3, .L8
 170 0006 0022     		mov	r2, #0
 171 0008 5A70     		strb	r2, [r3, #1]
 895:.\Generated_Source\PSoC4/BLE_eventHandler.c ****     cyBle_connHandle.bdHandle = 0u;
 172              		.loc 1 895 0
 173 000a 084B     		ldr	r3, .L8
 174 000c 0022     		mov	r2, #0
 175 000e 1A70     		strb	r2, [r3]
 896:.\Generated_Source\PSoC4/BLE_eventHandler.c ****     
 897:.\Generated_Source\PSoC4/BLE_eventHandler.c ****     #if (CYBLE_GATT_ROLE_CLIENT)
 898:.\Generated_Source\PSoC4/BLE_eventHandler.c ****         if(CYBLE_CLIENT_STATE_DISCOVERED == CyBle_GetClientState())
 176              		.loc 1 898 0
 177 0010 074B     		ldr	r3, .L8+4
 178 0012 1B78     		ldrb	r3, [r3]
 179 0014 052B     		cmp	r3, #5
 180 0016 03D1     		bne	.L6
 899:.\Generated_Source\PSoC4/BLE_eventHandler.c ****         {
 900:.\Generated_Source\PSoC4/BLE_eventHandler.c ****             CyBle_SetClientState(CYBLE_CLIENT_STATE_DISCONNECTED_DISCOVERED);
 181              		.loc 1 900 0
 182 0018 054B     		ldr	r3, .L8+4
 183 001a 0722     		mov	r2, #7
ARM GAS  C:\Users\Evan\AppData\Local\Temp\ccmgTxtA.s 			page 20


 184 001c 1A70     		strb	r2, [r3]
 185 001e 02E0     		b	.L5
 186              	.L6:
 901:.\Generated_Source\PSoC4/BLE_eventHandler.c ****         }
 902:.\Generated_Source\PSoC4/BLE_eventHandler.c ****         else
 903:.\Generated_Source\PSoC4/BLE_eventHandler.c ****         {
 904:.\Generated_Source\PSoC4/BLE_eventHandler.c ****             CyBle_SetClientState(CYBLE_CLIENT_STATE_DISCONNECTED);
 187              		.loc 1 904 0
 188 0020 034B     		ldr	r3, .L8+4
 189 0022 0822     		mov	r2, #8
 190 0024 1A70     		strb	r2, [r3]
 191              	.L5:
 905:.\Generated_Source\PSoC4/BLE_eventHandler.c ****         }
 906:.\Generated_Source\PSoC4/BLE_eventHandler.c ****     #endif /* CYBLE_GATT_ROLE_CLIENT */
 907:.\Generated_Source\PSoC4/BLE_eventHandler.c ****         
 908:.\Generated_Source\PSoC4/BLE_eventHandler.c ****     #ifdef CYBLE_CPS_SERVER
 909:.\Generated_Source\PSoC4/BLE_eventHandler.c ****         #if CYBLE_GAP_ROLE_BROADCASTER
 910:.\Generated_Source\PSoC4/BLE_eventHandler.c ****             CyBle_CpssDisconnectEventHandler();
 911:.\Generated_Source\PSoC4/BLE_eventHandler.c ****         #endif /* CYBLE_GAP_ROLE_BROADCASTER */
 912:.\Generated_Source\PSoC4/BLE_eventHandler.c ****     #endif /* CYBLE_CPS_SERVER */
 913:.\Generated_Source\PSoC4/BLE_eventHandler.c **** 
 914:.\Generated_Source\PSoC4/BLE_eventHandler.c ****     #ifdef CYBLE_CPS_CLIENT
 915:.\Generated_Source\PSoC4/BLE_eventHandler.c ****         CyBle_CpscDisconnectEventHandler();
 916:.\Generated_Source\PSoC4/BLE_eventHandler.c ****     #endif /* CYBLE_CPS_CLIENT */
 917:.\Generated_Source\PSoC4/BLE_eventHandler.c **** 
 918:.\Generated_Source\PSoC4/BLE_eventHandler.c ****     #ifdef CYBLE_IAS_SERVER
 919:.\Generated_Source\PSoC4/BLE_eventHandler.c ****         CyBle_IassDisconnectEventHandler();
 920:.\Generated_Source\PSoC4/BLE_eventHandler.c ****     #endif /* CYBLE_IAS_SERVER */
 921:.\Generated_Source\PSoC4/BLE_eventHandler.c ****     
 922:.\Generated_Source\PSoC4/BLE_eventHandler.c ****     #ifdef CYBLE_GLS_SERVER
 923:.\Generated_Source\PSoC4/BLE_eventHandler.c ****         CyBle_GlsInit();
 924:.\Generated_Source\PSoC4/BLE_eventHandler.c ****     #endif /* CYBLE_GLS_SERVER */
 925:.\Generated_Source\PSoC4/BLE_eventHandler.c ****     
 926:.\Generated_Source\PSoC4/BLE_eventHandler.c ****     #ifdef CYBLE_LNS_SERVER
 927:.\Generated_Source\PSoC4/BLE_eventHandler.c ****         CyBle_LnsInit();
 928:.\Generated_Source\PSoC4/BLE_eventHandler.c ****     #endif /* CYBLE_LNS_SERVER */
 929:.\Generated_Source\PSoC4/BLE_eventHandler.c ****     
 930:.\Generated_Source\PSoC4/BLE_eventHandler.c ****     #ifdef CYBLE_UDS_SERVER
 931:.\Generated_Source\PSoC4/BLE_eventHandler.c ****         CyBle_UdsInit();
 932:.\Generated_Source\PSoC4/BLE_eventHandler.c ****     #endif /* CYBLE_UDS_SERVER */
 933:.\Generated_Source\PSoC4/BLE_eventHandler.c **** }
 192              		.loc 1 933 0
 193 0026 BD46     		mov	sp, r7
 194              		@ sp needed
 195 0028 80BD     		pop	{r7, pc}
 196              	.L9:
 197 002a C046     		.align	2
 198              	.L8:
 199 002c 00000000 		.word	cyBle_connHandle
 200 0030 00000000 		.word	cyBle_clientState
 201              		.cfi_endproc
 202              	.LFE6:
 203              		.size	CyBle_GattDisconnectEventHandler, .-CyBle_GattDisconnectEventHandler
 204              		.section	.text.CyBle_TimeOutEventHandler,"ax",%progbits
 205              		.align	2
 206              		.code	16
 207              		.thumb_func
ARM GAS  C:\Users\Evan\AppData\Local\Temp\ccmgTxtA.s 			page 21


 208              		.type	CyBle_TimeOutEventHandler, %function
 209              	CyBle_TimeOutEventHandler:
 210              	.LFB7:
 934:.\Generated_Source\PSoC4/BLE_eventHandler.c **** 
 935:.\Generated_Source\PSoC4/BLE_eventHandler.c **** 
 936:.\Generated_Source\PSoC4/BLE_eventHandler.c **** /****************************************************************************** 
 937:.\Generated_Source\PSoC4/BLE_eventHandler.c **** ##Function Name: CyBle_TimeOutEventHandler
 938:.\Generated_Source\PSoC4/BLE_eventHandler.c **** *******************************************************************************
 939:.\Generated_Source\PSoC4/BLE_eventHandler.c **** 
 940:.\Generated_Source\PSoC4/BLE_eventHandler.c **** Summary:
 941:.\Generated_Source\PSoC4/BLE_eventHandler.c ****  Handles the CYBLE_EVT_TIMEOUT event from the BLE stack.
 942:.\Generated_Source\PSoC4/BLE_eventHandler.c **** 
 943:.\Generated_Source\PSoC4/BLE_eventHandler.c **** Parameters:
 944:.\Generated_Source\PSoC4/BLE_eventHandler.c ****  *eventParam - The pointer to a structure of type CYBLE_TO_REASON_CODE_T.
 945:.\Generated_Source\PSoC4/BLE_eventHandler.c **** 
 946:.\Generated_Source\PSoC4/BLE_eventHandler.c **** Return:
 947:.\Generated_Source\PSoC4/BLE_eventHandler.c ****  None
 948:.\Generated_Source\PSoC4/BLE_eventHandler.c **** 
 949:.\Generated_Source\PSoC4/BLE_eventHandler.c **** ******************************************************************************/
 950:.\Generated_Source\PSoC4/BLE_eventHandler.c **** static void CyBle_TimeOutEventHandler(const CYBLE_TO_REASON_CODE_T *eventParam)
 951:.\Generated_Source\PSoC4/BLE_eventHandler.c **** {
 211              		.loc 1 951 0
 212              		.cfi_startproc
 213 0000 80B5     		push	{r7, lr}
 214              		.cfi_def_cfa_offset 8
 215              		.cfi_offset 7, -8
 216              		.cfi_offset 14, -4
 217 0002 82B0     		sub	sp, sp, #8
 218              		.cfi_def_cfa_offset 16
 219 0004 00AF     		add	r7, sp, #0
 220              		.cfi_def_cfa_register 7
 221 0006 7860     		str	r0, [r7, #4]
 952:.\Generated_Source\PSoC4/BLE_eventHandler.c ****     if(*eventParam == CYBLE_GATT_RSP_TO)
 222              		.loc 1 952 0
 223 0008 7B68     		ldr	r3, [r7, #4]
 224 000a 1B78     		ldrb	r3, [r3]
 225 000c 032B     		cmp	r3, #3
 226 000e 3ED1     		bne	.L11
 953:.\Generated_Source\PSoC4/BLE_eventHandler.c ****     {
 954:.\Generated_Source\PSoC4/BLE_eventHandler.c ****     #if (CYBLE_GATT_ROLE_CLIENT)
 955:.\Generated_Source\PSoC4/BLE_eventHandler.c ****         if(0u != (cyBle_eventHandlerFlag & CYBLE_AUTO_DISCOVERY))
 227              		.loc 1 955 0
 228 0010 204B     		ldr	r3, .L19
 229 0012 1B78     		ldrb	r3, [r3]
 230 0014 DBB2     		uxtb	r3, r3
 231 0016 1A1C     		mov	r2, r3
 232 0018 0223     		mov	r3, #2
 233 001a 1340     		and	r3, r2
 234 001c 37D0     		beq	.L11
 956:.\Generated_Source\PSoC4/BLE_eventHandler.c ****         {
 957:.\Generated_Source\PSoC4/BLE_eventHandler.c ****             switch(CyBle_GetClientState())
 235              		.loc 1 957 0
 236 001e 1E4B     		ldr	r3, .L19+4
 237 0020 1B78     		ldrb	r3, [r3]
 238 0022 022B     		cmp	r3, #2
 239 0024 10D0     		beq	.L13
 240 0026 02DC     		bgt	.L14
ARM GAS  C:\Users\Evan\AppData\Local\Temp\ccmgTxtA.s 			page 22


 241 0028 012B     		cmp	r3, #1
 242 002a 05D0     		beq	.L15
 958:.\Generated_Source\PSoC4/BLE_eventHandler.c ****             {
 959:.\Generated_Source\PSoC4/BLE_eventHandler.c ****                 case CYBLE_CLIENT_STATE_SRVC_DISCOVERING:
 960:.\Generated_Source\PSoC4/BLE_eventHandler.c ****                     CyBle_ApplCallback(CYBLE_EVT_GATTC_SRVC_DISCOVERY_FAILED, NULL);
 961:.\Generated_Source\PSoC4/BLE_eventHandler.c ****                     break;
 962:.\Generated_Source\PSoC4/BLE_eventHandler.c ****                 case CYBLE_CLIENT_STATE_INCL_DISCOVERING:
 963:.\Generated_Source\PSoC4/BLE_eventHandler.c ****                     CyBle_ApplCallback(CYBLE_EVT_GATTC_INCL_DISCOVERY_FAILED, NULL);
 964:.\Generated_Source\PSoC4/BLE_eventHandler.c ****                     break;
 965:.\Generated_Source\PSoC4/BLE_eventHandler.c ****                 case CYBLE_CLIENT_STATE_CHAR_DISCOVERING:
 966:.\Generated_Source\PSoC4/BLE_eventHandler.c ****                     CyBle_ApplCallback(CYBLE_EVT_GATTC_CHAR_DISCOVERY_FAILED, NULL);
 967:.\Generated_Source\PSoC4/BLE_eventHandler.c ****                     break;
 968:.\Generated_Source\PSoC4/BLE_eventHandler.c ****                 case CYBLE_CLIENT_STATE_DESCR_DISCOVERING:
 969:.\Generated_Source\PSoC4/BLE_eventHandler.c ****                     CyBle_ApplCallback(CYBLE_EVT_GATTC_DESCR_DISCOVERY_FAILED, NULL);
 970:.\Generated_Source\PSoC4/BLE_eventHandler.c ****                     break;
 971:.\Generated_Source\PSoC4/BLE_eventHandler.c ****                 default:        /* Other states should not be set in Auto discovery mode */
 972:.\Generated_Source\PSoC4/BLE_eventHandler.c ****                     break;
 243              		.loc 1 972 0
 244 002c 24E0     		b	.L18
 245              	.L14:
 957:.\Generated_Source\PSoC4/BLE_eventHandler.c ****             switch(CyBle_GetClientState())
 246              		.loc 1 957 0
 247 002e 032B     		cmp	r3, #3
 248 0030 12D0     		beq	.L16
 249 0032 042B     		cmp	r3, #4
 250 0034 18D0     		beq	.L17
 251              		.loc 1 972 0
 252 0036 1FE0     		b	.L18
 253              	.L15:
 960:.\Generated_Source\PSoC4/BLE_eventHandler.c ****                     CyBle_ApplCallback(CYBLE_EVT_GATTC_SRVC_DISCOVERY_FAILED, NULL);
 254              		.loc 1 960 0
 255 0038 184B     		ldr	r3, .L19+8
 256 003a 1B68     		ldr	r3, [r3]
 257 003c 0822     		mov	r2, #8
 258 003e FF32     		add	r2, r2, #255
 259 0040 101C     		mov	r0, r2
 260 0042 0021     		mov	r1, #0
 261 0044 9847     		blx	r3
 961:.\Generated_Source\PSoC4/BLE_eventHandler.c ****                     break;
 262              		.loc 1 961 0
 263 0046 17E0     		b	.L18
 264              	.L13:
 963:.\Generated_Source\PSoC4/BLE_eventHandler.c ****                     CyBle_ApplCallback(CYBLE_EVT_GATTC_INCL_DISCOVERY_FAILED, NULL);
 265              		.loc 1 963 0
 266 0048 144B     		ldr	r3, .L19+8
 267 004a 1B68     		ldr	r3, [r3]
 268 004c 8422     		mov	r2, #132
 269 004e 5200     		lsl	r2, r2, #1
 270 0050 101C     		mov	r0, r2
 271 0052 0021     		mov	r1, #0
 272 0054 9847     		blx	r3
 964:.\Generated_Source\PSoC4/BLE_eventHandler.c ****                     break;
 273              		.loc 1 964 0
 274 0056 0FE0     		b	.L18
 275              	.L16:
 966:.\Generated_Source\PSoC4/BLE_eventHandler.c ****                     CyBle_ApplCallback(CYBLE_EVT_GATTC_CHAR_DISCOVERY_FAILED, NULL);
 276              		.loc 1 966 0
ARM GAS  C:\Users\Evan\AppData\Local\Temp\ccmgTxtA.s 			page 23


 277 0058 104B     		ldr	r3, .L19+8
 278 005a 1B68     		ldr	r3, [r3]
 279 005c 0A22     		mov	r2, #10
 280 005e FF32     		add	r2, r2, #255
 281 0060 101C     		mov	r0, r2
 282 0062 0021     		mov	r1, #0
 283 0064 9847     		blx	r3
 967:.\Generated_Source\PSoC4/BLE_eventHandler.c ****                     break;
 284              		.loc 1 967 0
 285 0066 07E0     		b	.L18
 286              	.L17:
 969:.\Generated_Source\PSoC4/BLE_eventHandler.c ****                     CyBle_ApplCallback(CYBLE_EVT_GATTC_DESCR_DISCOVERY_FAILED, NULL);
 287              		.loc 1 969 0
 288 0068 0C4B     		ldr	r3, .L19+8
 289 006a 1B68     		ldr	r3, [r3]
 290 006c 8522     		mov	r2, #133
 291 006e 5200     		lsl	r2, r2, #1
 292 0070 101C     		mov	r0, r2
 293 0072 0021     		mov	r1, #0
 294 0074 9847     		blx	r3
 970:.\Generated_Source\PSoC4/BLE_eventHandler.c ****                     break;
 295              		.loc 1 970 0
 296 0076 C046     		mov	r8, r8
 297              	.L18:
 973:.\Generated_Source\PSoC4/BLE_eventHandler.c ****             }
 974:.\Generated_Source\PSoC4/BLE_eventHandler.c ****             cyBle_eventHandlerFlag &= (uint8)~CYBLE_AUTO_DISCOVERY;
 298              		.loc 1 974 0
 299 0078 064B     		ldr	r3, .L19
 300 007a 1B78     		ldrb	r3, [r3]
 301 007c DBB2     		uxtb	r3, r3
 302 007e 0222     		mov	r2, #2
 303 0080 9343     		bic	r3, r2
 304 0082 DAB2     		uxtb	r2, r3
 305 0084 034B     		ldr	r3, .L19
 306 0086 1A70     		strb	r2, [r3]
 975:.\Generated_Source\PSoC4/BLE_eventHandler.c ****             CyBle_SetClientState(CYBLE_CLIENT_STATE_CONNECTED);
 307              		.loc 1 975 0
 308 0088 034B     		ldr	r3, .L19+4
 309 008a 0022     		mov	r2, #0
 310 008c 1A70     		strb	r2, [r3]
 311              	.L11:
 976:.\Generated_Source\PSoC4/BLE_eventHandler.c ****         }
 977:.\Generated_Source\PSoC4/BLE_eventHandler.c ****     #endif /* CYBLE_GATT_ROLE_CLIENT */
 978:.\Generated_Source\PSoC4/BLE_eventHandler.c ****     #ifdef CYBLE_CPS_SERVER
 979:.\Generated_Source\PSoC4/BLE_eventHandler.c ****         CyBle_CpssTimeOutEventHandler();
 980:.\Generated_Source\PSoC4/BLE_eventHandler.c ****     #endif /* CYBLE_CPS_SERVER */
 981:.\Generated_Source\PSoC4/BLE_eventHandler.c ****     }
 982:.\Generated_Source\PSoC4/BLE_eventHandler.c ****     
 983:.\Generated_Source\PSoC4/BLE_eventHandler.c ****     /* Connection procedure timeout */
 984:.\Generated_Source\PSoC4/BLE_eventHandler.c ****     if(*eventParam == CYBLE_GENERIC_TO)
 985:.\Generated_Source\PSoC4/BLE_eventHandler.c ****     {
 986:.\Generated_Source\PSoC4/BLE_eventHandler.c ****     #if(CYBLE_GAP_ROLE_CENTRAL)
 987:.\Generated_Source\PSoC4/BLE_eventHandler.c ****         if(CYBLE_STATE_CONNECTING == CyBle_GetState())
 988:.\Generated_Source\PSoC4/BLE_eventHandler.c ****         {
 989:.\Generated_Source\PSoC4/BLE_eventHandler.c ****             (void)CyBle_GapcCancelDeviceConnection();
 990:.\Generated_Source\PSoC4/BLE_eventHandler.c ****         }
 991:.\Generated_Source\PSoC4/BLE_eventHandler.c ****     #endif /* CYBLE_GAP_ROLE_CENTRAL */
ARM GAS  C:\Users\Evan\AppData\Local\Temp\ccmgTxtA.s 			page 24


 992:.\Generated_Source\PSoC4/BLE_eventHandler.c ****     }
 993:.\Generated_Source\PSoC4/BLE_eventHandler.c **** }
 312              		.loc 1 993 0
 313 008e BD46     		mov	sp, r7
 314 0090 02B0     		add	sp, sp, #8
 315              		@ sp needed
 316 0092 80BD     		pop	{r7, pc}
 317              	.L20:
 318              		.align	2
 319              	.L19:
 320 0094 00000000 		.word	cyBle_eventHandlerFlag
 321 0098 00000000 		.word	cyBle_clientState
 322 009c 00000000 		.word	CyBle_ApplCallback
 323              		.cfi_endproc
 324              	.LFE7:
 325              		.size	CyBle_TimeOutEventHandler, .-CyBle_TimeOutEventHandler
 326              		.section	.text.CyBle_GattConnectReqHandler,"ax",%progbits
 327              		.align	2
 328              		.code	16
 329              		.thumb_func
 330              		.type	CyBle_GattConnectReqHandler, %function
 331              	CyBle_GattConnectReqHandler:
 332              	.LFB8:
 994:.\Generated_Source\PSoC4/BLE_eventHandler.c **** 
 995:.\Generated_Source\PSoC4/BLE_eventHandler.c **** 
 996:.\Generated_Source\PSoC4/BLE_eventHandler.c **** /****************************************************************************** 
 997:.\Generated_Source\PSoC4/BLE_eventHandler.c **** ##Function Name: CyBle_GattConnectReqHandler
 998:.\Generated_Source\PSoC4/BLE_eventHandler.c **** *******************************************************************************
 999:.\Generated_Source\PSoC4/BLE_eventHandler.c **** 
1000:.\Generated_Source\PSoC4/BLE_eventHandler.c **** Summary:
1001:.\Generated_Source\PSoC4/BLE_eventHandler.c ****  Handles the GATT connect event from the BLE stack.
1002:.\Generated_Source\PSoC4/BLE_eventHandler.c **** 
1003:.\Generated_Source\PSoC4/BLE_eventHandler.c **** Parameters:
1004:.\Generated_Source\PSoC4/BLE_eventHandler.c ****  None
1005:.\Generated_Source\PSoC4/BLE_eventHandler.c **** 
1006:.\Generated_Source\PSoC4/BLE_eventHandler.c **** Return:
1007:.\Generated_Source\PSoC4/BLE_eventHandler.c ****  None
1008:.\Generated_Source\PSoC4/BLE_eventHandler.c **** 
1009:.\Generated_Source\PSoC4/BLE_eventHandler.c **** ******************************************************************************/
1010:.\Generated_Source\PSoC4/BLE_eventHandler.c **** static void CyBle_GattConnectReqHandler(void)
1011:.\Generated_Source\PSoC4/BLE_eventHandler.c **** {
 333              		.loc 1 1011 0
 334              		.cfi_startproc
 335 0000 80B5     		push	{r7, lr}
 336              		.cfi_def_cfa_offset 8
 337              		.cfi_offset 7, -8
 338              		.cfi_offset 14, -4
 339 0002 00AF     		add	r7, sp, #0
 340              		.cfi_def_cfa_register 7
1012:.\Generated_Source\PSoC4/BLE_eventHandler.c ****     #ifdef CYBLE_CPS_SERVER
1013:.\Generated_Source\PSoC4/BLE_eventHandler.c ****         CyBle_CpssConnectEventHandler();
1014:.\Generated_Source\PSoC4/BLE_eventHandler.c ****     #endif /* CYBLE_CPS_SERVER */
1015:.\Generated_Source\PSoC4/BLE_eventHandler.c ****     
1016:.\Generated_Source\PSoC4/BLE_eventHandler.c ****     #ifdef CYBLE_CSCS_SERVER
1017:.\Generated_Source\PSoC4/BLE_eventHandler.c ****             CyBle_CscsInit();
1018:.\Generated_Source\PSoC4/BLE_eventHandler.c ****     #endif /* CYBLE_CSCS_SERVER */
1019:.\Generated_Source\PSoC4/BLE_eventHandler.c ****     
ARM GAS  C:\Users\Evan\AppData\Local\Temp\ccmgTxtA.s 			page 25


1020:.\Generated_Source\PSoC4/BLE_eventHandler.c ****     #ifdef CYBLE_LLS_SERVER
1021:.\Generated_Source\PSoC4/BLE_eventHandler.c ****         CyBle_LlssConnectEventHandler();
1022:.\Generated_Source\PSoC4/BLE_eventHandler.c ****     #endif /* CYBLE_LLS_SERVER */
1023:.\Generated_Source\PSoC4/BLE_eventHandler.c ****     
1024:.\Generated_Source\PSoC4/BLE_eventHandler.c ****     #ifdef CYBLE_HIDS_SERVER
1025:.\Generated_Source\PSoC4/BLE_eventHandler.c ****         CyBle_HidssOnDeviceConnected();
1026:.\Generated_Source\PSoC4/BLE_eventHandler.c ****     #endif /* CYBLE_HIDS_SERVER */
1027:.\Generated_Source\PSoC4/BLE_eventHandler.c **** 
1028:.\Generated_Source\PSoC4/BLE_eventHandler.c ****     #ifdef CYBLE_RSCS_SERVER
1029:.\Generated_Source\PSoC4/BLE_eventHandler.c ****         CyBle_RscsInit();
1030:.\Generated_Source\PSoC4/BLE_eventHandler.c ****     #endif /* CYBLE_RSCS_SERVER */
1031:.\Generated_Source\PSoC4/BLE_eventHandler.c **** }
 341              		.loc 1 1031 0
 342 0004 BD46     		mov	sp, r7
 343              		@ sp needed
 344 0006 80BD     		pop	{r7, pc}
 345              		.cfi_endproc
 346              	.LFE8:
 347              		.size	CyBle_GattConnectReqHandler, .-CyBle_GattConnectReqHandler
 348              		.section	.text.CyBle_IsDeviceAddressValid,"ax",%progbits
 349              		.align	2
 350              		.code	16
 351              		.thumb_func
 352              		.type	CyBle_IsDeviceAddressValid, %function
 353              	CyBle_IsDeviceAddressValid:
 354              	.LFB9:
1032:.\Generated_Source\PSoC4/BLE_eventHandler.c **** 
1033:.\Generated_Source\PSoC4/BLE_eventHandler.c **** 
1034:.\Generated_Source\PSoC4/BLE_eventHandler.c **** #if (CYBLE_GATT_ROLE_SERVER || CYBLE_GATT_ROLE_CLIENT)
1035:.\Generated_Source\PSoC4/BLE_eventHandler.c **** 
1036:.\Generated_Source\PSoC4/BLE_eventHandler.c **** /****************************************************************************** 
1037:.\Generated_Source\PSoC4/BLE_eventHandler.c **** ##Function Name: CyBle_IsDeviceAddressValid
1038:.\Generated_Source\PSoC4/BLE_eventHandler.c **** *******************************************************************************
1039:.\Generated_Source\PSoC4/BLE_eventHandler.c **** 
1040:.\Generated_Source\PSoC4/BLE_eventHandler.c **** Summary:
1041:.\Generated_Source\PSoC4/BLE_eventHandler.c ****  This function verifies that BLE public address has been programmed to SFLASH 
1042:.\Generated_Source\PSoC4/BLE_eventHandler.c ****  during manufacture.
1043:.\Generated_Source\PSoC4/BLE_eventHandler.c **** 
1044:.\Generated_Source\PSoC4/BLE_eventHandler.c **** Parameters:
1045:.\Generated_Source\PSoC4/BLE_eventHandler.c ****  CYBLE_GAP_BD_ADDR_T *sflashDeviceAddress: the pointer to the BD address of 
1046:.\Generated_Source\PSoC4/BLE_eventHandler.c ****                                            type CYBLE_GAP_BD_ADDR_T. 
1047:.\Generated_Source\PSoC4/BLE_eventHandler.c **** 
1048:.\Generated_Source\PSoC4/BLE_eventHandler.c **** Return:
1049:.\Generated_Source\PSoC4/BLE_eventHandler.c ****  Non zero value when a device address differs from the default SFLASH content.
1050:.\Generated_Source\PSoC4/BLE_eventHandler.c **** 
1051:.\Generated_Source\PSoC4/BLE_eventHandler.c **** ******************************************************************************/
1052:.\Generated_Source\PSoC4/BLE_eventHandler.c **** static uint8 CyBle_IsDeviceAddressValid(const CYBLE_GAP_BD_ADDR_T *sflashDeviceAddress)
1053:.\Generated_Source\PSoC4/BLE_eventHandler.c **** {
 355              		.loc 1 1053 0
 356              		.cfi_startproc
 357 0000 80B5     		push	{r7, lr}
 358              		.cfi_def_cfa_offset 8
 359              		.cfi_offset 7, -8
 360              		.cfi_offset 14, -4
 361 0002 84B0     		sub	sp, sp, #16
 362              		.cfi_def_cfa_offset 24
 363 0004 00AF     		add	r7, sp, #0
ARM GAS  C:\Users\Evan\AppData\Local\Temp\ccmgTxtA.s 			page 26


 364              		.cfi_def_cfa_register 7
 365 0006 7860     		str	r0, [r7, #4]
1054:.\Generated_Source\PSoC4/BLE_eventHandler.c ****     uint8 i;
1055:.\Generated_Source\PSoC4/BLE_eventHandler.c ****     uint8 sflashAddressValid = 0u;
 366              		.loc 1 1055 0
 367 0008 3B1C     		mov	r3, r7
 368 000a 0E33     		add	r3, r3, #14
 369 000c 0022     		mov	r2, #0
 370 000e 1A70     		strb	r2, [r3]
1056:.\Generated_Source\PSoC4/BLE_eventHandler.c ****     
1057:.\Generated_Source\PSoC4/BLE_eventHandler.c ****     if(sflashDeviceAddress -> type == CYBLE_GAP_ADDR_TYPE_PUBLIC)  
 371              		.loc 1 1057 0
 372 0010 7B68     		ldr	r3, [r7, #4]
 373 0012 9B79     		ldrb	r3, [r3, #6]
 374 0014 002B     		cmp	r3, #0
 375 0016 1CD1     		bne	.L23
1058:.\Generated_Source\PSoC4/BLE_eventHandler.c ****     {
1059:.\Generated_Source\PSoC4/BLE_eventHandler.c ****         for(i = 0u; i < CYBLE_GAP_BD_ADDR_SIZE; i++)
 376              		.loc 1 1059 0
 377 0018 3B1C     		mov	r3, r7
 378 001a 0F33     		add	r3, r3, #15
 379 001c 0022     		mov	r2, #0
 380 001e 1A70     		strb	r2, [r3]
 381 0020 12E0     		b	.L24
 382              	.L26:
1060:.\Generated_Source\PSoC4/BLE_eventHandler.c ****         {
1061:.\Generated_Source\PSoC4/BLE_eventHandler.c ****             if(sflashDeviceAddress->bdAddr[i] != 0u)
 383              		.loc 1 1061 0
 384 0022 3B1C     		mov	r3, r7
 385 0024 0F33     		add	r3, r3, #15
 386 0026 1B78     		ldrb	r3, [r3]
 387 0028 7A68     		ldr	r2, [r7, #4]
 388 002a D35C     		ldrb	r3, [r2, r3]
 389 002c 002B     		cmp	r3, #0
 390 002e 04D0     		beq	.L25
1062:.\Generated_Source\PSoC4/BLE_eventHandler.c ****             {
1063:.\Generated_Source\PSoC4/BLE_eventHandler.c ****                 sflashAddressValid = 1u;
 391              		.loc 1 1063 0
 392 0030 3B1C     		mov	r3, r7
 393 0032 0E33     		add	r3, r3, #14
 394 0034 0122     		mov	r2, #1
 395 0036 1A70     		strb	r2, [r3]
1064:.\Generated_Source\PSoC4/BLE_eventHandler.c ****                 break;
 396              		.loc 1 1064 0
 397 0038 0BE0     		b	.L23
 398              	.L25:
1059:.\Generated_Source\PSoC4/BLE_eventHandler.c ****         for(i = 0u; i < CYBLE_GAP_BD_ADDR_SIZE; i++)
 399              		.loc 1 1059 0
 400 003a 3B1C     		mov	r3, r7
 401 003c 0F33     		add	r3, r3, #15
 402 003e 1A78     		ldrb	r2, [r3]
 403 0040 3B1C     		mov	r3, r7
 404 0042 0F33     		add	r3, r3, #15
 405 0044 0132     		add	r2, r2, #1
 406 0046 1A70     		strb	r2, [r3]
 407              	.L24:
1059:.\Generated_Source\PSoC4/BLE_eventHandler.c ****         for(i = 0u; i < CYBLE_GAP_BD_ADDR_SIZE; i++)
ARM GAS  C:\Users\Evan\AppData\Local\Temp\ccmgTxtA.s 			page 27


 408              		.loc 1 1059 0 is_stmt 0 discriminator 1
 409 0048 3B1C     		mov	r3, r7
 410 004a 0F33     		add	r3, r3, #15
 411 004c 1B78     		ldrb	r3, [r3]
 412 004e 052B     		cmp	r3, #5
 413 0050 E7D9     		bls	.L26
 414              	.L23:
1065:.\Generated_Source\PSoC4/BLE_eventHandler.c ****             }
1066:.\Generated_Source\PSoC4/BLE_eventHandler.c ****         }
1067:.\Generated_Source\PSoC4/BLE_eventHandler.c ****     }
1068:.\Generated_Source\PSoC4/BLE_eventHandler.c ****     return (sflashAddressValid);
 415              		.loc 1 1068 0 is_stmt 1
 416 0052 3B1C     		mov	r3, r7
 417 0054 0E33     		add	r3, r3, #14
 418 0056 1B78     		ldrb	r3, [r3]
1069:.\Generated_Source\PSoC4/BLE_eventHandler.c **** }
 419              		.loc 1 1069 0
 420 0058 181C     		mov	r0, r3
 421 005a BD46     		mov	sp, r7
 422 005c 04B0     		add	sp, sp, #16
 423              		@ sp needed
 424 005e 80BD     		pop	{r7, pc}
 425              		.cfi_endproc
 426              	.LFE9:
 427              		.size	CyBle_IsDeviceAddressValid, .-CyBle_IsDeviceAddressValid
 428              		.section	.text.CyBle_L2Cap_ConnParamUpdateRspEventHandler,"ax",%progbits
 429              		.align	2
 430              		.code	16
 431              		.thumb_func
 432              		.type	CyBle_L2Cap_ConnParamUpdateRspEventHandler, %function
 433              	CyBle_L2Cap_ConnParamUpdateRspEventHandler:
 434              	.LFB10:
1070:.\Generated_Source\PSoC4/BLE_eventHandler.c **** #endif /* CYBLE_GATT_ROLE_SERVER || CYBLE_GATT_ROLE_CLIENT */
1071:.\Generated_Source\PSoC4/BLE_eventHandler.c **** 
1072:.\Generated_Source\PSoC4/BLE_eventHandler.c **** 
1073:.\Generated_Source\PSoC4/BLE_eventHandler.c **** /****************************************************************************** 
1074:.\Generated_Source\PSoC4/BLE_eventHandler.c **** ##Function Name: CyBle_L2Cap_ConnParamUpdateRspHandler
1075:.\Generated_Source\PSoC4/BLE_eventHandler.c **** *******************************************************************************
1076:.\Generated_Source\PSoC4/BLE_eventHandler.c **** 
1077:.\Generated_Source\PSoC4/BLE_eventHandler.c **** Summary:
1078:.\Generated_Source\PSoC4/BLE_eventHandler.c ****  Handles the L2CAP connection parameter response event from
1079:.\Generated_Source\PSoC4/BLE_eventHandler.c ****  the BLE stack.
1080:.\Generated_Source\PSoC4/BLE_eventHandler.c **** 
1081:.\Generated_Source\PSoC4/BLE_eventHandler.c **** Parameters:
1082:.\Generated_Source\PSoC4/BLE_eventHandler.c ****  uint16 response:
1083:.\Generated_Source\PSoC4/BLE_eventHandler.c ****      * Accepted = 0x0000
1084:.\Generated_Source\PSoC4/BLE_eventHandler.c ****      * Rejected = 0x0001
1085:.\Generated_Source\PSoC4/BLE_eventHandler.c **** 
1086:.\Generated_Source\PSoC4/BLE_eventHandler.c **** Return:
1087:.\Generated_Source\PSoC4/BLE_eventHandler.c ****  None
1088:.\Generated_Source\PSoC4/BLE_eventHandler.c **** 
1089:.\Generated_Source\PSoC4/BLE_eventHandler.c **** ******************************************************************************/
1090:.\Generated_Source\PSoC4/BLE_eventHandler.c **** static void CyBle_L2Cap_ConnParamUpdateRspEventHandler(uint16 response)
1091:.\Generated_Source\PSoC4/BLE_eventHandler.c **** {
 435              		.loc 1 1091 0
 436              		.cfi_startproc
 437 0000 80B5     		push	{r7, lr}
ARM GAS  C:\Users\Evan\AppData\Local\Temp\ccmgTxtA.s 			page 28


 438              		.cfi_def_cfa_offset 8
 439              		.cfi_offset 7, -8
 440              		.cfi_offset 14, -4
 441 0002 82B0     		sub	sp, sp, #8
 442              		.cfi_def_cfa_offset 16
 443 0004 00AF     		add	r7, sp, #0
 444              		.cfi_def_cfa_register 7
 445 0006 021C     		mov	r2, r0
 446 0008 BB1D     		add	r3, r7, #6
 447 000a 1A80     		strh	r2, [r3]
1092:.\Generated_Source\PSoC4/BLE_eventHandler.c ****     #ifdef CYBLE_CPS_SERVER
1093:.\Generated_Source\PSoC4/BLE_eventHandler.c ****         CyBle_CpssConnParamUpdateRspEventHandler(response);
1094:.\Generated_Source\PSoC4/BLE_eventHandler.c ****     #endif /* CYBLE_CPS_SERVER */
1095:.\Generated_Source\PSoC4/BLE_eventHandler.c ****     
1096:.\Generated_Source\PSoC4/BLE_eventHandler.c ****     /* Unreferenced variable warning workaround */
1097:.\Generated_Source\PSoC4/BLE_eventHandler.c ****     if(response != 0u)
1098:.\Generated_Source\PSoC4/BLE_eventHandler.c ****     {
1099:.\Generated_Source\PSoC4/BLE_eventHandler.c ****     }
1100:.\Generated_Source\PSoC4/BLE_eventHandler.c **** }
 448              		.loc 1 1100 0
 449 000c BD46     		mov	sp, r7
 450 000e 02B0     		add	sp, sp, #8
 451              		@ sp needed
 452 0010 80BD     		pop	{r7, pc}
 453              		.cfi_endproc
 454              	.LFE10:
 455              		.size	CyBle_L2Cap_ConnParamUpdateRspEventHandler, .-CyBle_L2Cap_ConnParamUpdateRspEventHandler
 456 0012 C046     		.section	.text.CyBle_GapConnUpdateCompleteEventHandler,"ax",%progbits
 457              		.align	2
 458              		.code	16
 459              		.thumb_func
 460              		.type	CyBle_GapConnUpdateCompleteEventHandler, %function
 461              	CyBle_GapConnUpdateCompleteEventHandler:
 462              	.LFB11:
1101:.\Generated_Source\PSoC4/BLE_eventHandler.c **** 
1102:.\Generated_Source\PSoC4/BLE_eventHandler.c **** 
1103:.\Generated_Source\PSoC4/BLE_eventHandler.c **** /****************************************************************************** 
1104:.\Generated_Source\PSoC4/BLE_eventHandler.c **** ##Function Name: CyBle_GapConnUpdateCompleteEventHandler
1105:.\Generated_Source\PSoC4/BLE_eventHandler.c **** *******************************************************************************
1106:.\Generated_Source\PSoC4/BLE_eventHandler.c **** 
1107:.\Generated_Source\PSoC4/BLE_eventHandler.c **** Summary:
1108:.\Generated_Source\PSoC4/BLE_eventHandler.c ****  Handles the CYBLE_EVT_GAP_CONNECTION_UPDATE_COMPLETE event from
1109:.\Generated_Source\PSoC4/BLE_eventHandler.c ****  the BLE stack.
1110:.\Generated_Source\PSoC4/BLE_eventHandler.c **** 
1111:.\Generated_Source\PSoC4/BLE_eventHandler.c **** Parameters:
1112:.\Generated_Source\PSoC4/BLE_eventHandler.c ****  *eventParam: The pointer to the data structure specified by the event.
1113:.\Generated_Source\PSoC4/BLE_eventHandler.c **** 
1114:.\Generated_Source\PSoC4/BLE_eventHandler.c **** Return:
1115:.\Generated_Source\PSoC4/BLE_eventHandler.c ****  None
1116:.\Generated_Source\PSoC4/BLE_eventHandler.c **** 
1117:.\Generated_Source\PSoC4/BLE_eventHandler.c **** ******************************************************************************/
1118:.\Generated_Source\PSoC4/BLE_eventHandler.c **** static void CyBle_GapConnUpdateCompleteEventHandler(const CYBLE_GAP_CONN_PARAM_UPDATED_IN_CONTROLLE
1119:.\Generated_Source\PSoC4/BLE_eventHandler.c **** {
 463              		.loc 1 1119 0
 464              		.cfi_startproc
 465 0000 80B5     		push	{r7, lr}
 466              		.cfi_def_cfa_offset 8
ARM GAS  C:\Users\Evan\AppData\Local\Temp\ccmgTxtA.s 			page 29


 467              		.cfi_offset 7, -8
 468              		.cfi_offset 14, -4
 469 0002 82B0     		sub	sp, sp, #8
 470              		.cfi_def_cfa_offset 16
 471 0004 00AF     		add	r7, sp, #0
 472              		.cfi_def_cfa_register 7
 473 0006 7860     		str	r0, [r7, #4]
1120:.\Generated_Source\PSoC4/BLE_eventHandler.c ****     #ifdef CYBLE_CPS_SERVER
1121:.\Generated_Source\PSoC4/BLE_eventHandler.c ****         CyBle_CpssConnUpdateCompleteEventHandler(eventParam);
1122:.\Generated_Source\PSoC4/BLE_eventHandler.c ****     #endif /* CYBLE_CPS_SERVER */
1123:.\Generated_Source\PSoC4/BLE_eventHandler.c ****     
1124:.\Generated_Source\PSoC4/BLE_eventHandler.c ****     /* Unreferenced variable warning workaround */
1125:.\Generated_Source\PSoC4/BLE_eventHandler.c ****     if(eventParam != 0u)
1126:.\Generated_Source\PSoC4/BLE_eventHandler.c ****     {
1127:.\Generated_Source\PSoC4/BLE_eventHandler.c ****     }
1128:.\Generated_Source\PSoC4/BLE_eventHandler.c **** }
 474              		.loc 1 1128 0
 475 0008 BD46     		mov	sp, r7
 476 000a 02B0     		add	sp, sp, #8
 477              		@ sp needed
 478 000c 80BD     		pop	{r7, pc}
 479              		.cfi_endproc
 480              	.LFE11:
 481              		.size	CyBle_GapConnUpdateCompleteEventHandler, .-CyBle_GapConnUpdateCompleteEventHandler
 482              		.section	.text.CyBle_EventHandler,"ax",%progbits
 483              		.align	2
 484              		.global	CyBle_EventHandler
 485              		.code	16
 486              		.thumb_func
 487              		.type	CyBle_EventHandler, %function
 488              	CyBle_EventHandler:
 489              	.LFB12:
1129:.\Generated_Source\PSoC4/BLE_eventHandler.c **** 
1130:.\Generated_Source\PSoC4/BLE_eventHandler.c **** 
1131:.\Generated_Source\PSoC4/BLE_eventHandler.c **** /****************************************************************************** 
1132:.\Generated_Source\PSoC4/BLE_eventHandler.c **** ##Function Name: CyBle_EventHandler
1133:.\Generated_Source\PSoC4/BLE_eventHandler.c **** *******************************************************************************
1134:.\Generated_Source\PSoC4/BLE_eventHandler.c **** 
1135:.\Generated_Source\PSoC4/BLE_eventHandler.c **** Summary:
1136:.\Generated_Source\PSoC4/BLE_eventHandler.c ****  Handles the events from the BLE stack
1137:.\Generated_Source\PSoC4/BLE_eventHandler.c **** 
1138:.\Generated_Source\PSoC4/BLE_eventHandler.c **** Parameters:
1139:.\Generated_Source\PSoC4/BLE_eventHandler.c ****  eventCode:    the event code
1140:.\Generated_Source\PSoC4/BLE_eventHandler.c ****  *eventParam:  the event parameters
1141:.\Generated_Source\PSoC4/BLE_eventHandler.c **** 
1142:.\Generated_Source\PSoC4/BLE_eventHandler.c **** Return:
1143:.\Generated_Source\PSoC4/BLE_eventHandler.c ****  None.
1144:.\Generated_Source\PSoC4/BLE_eventHandler.c **** 
1145:.\Generated_Source\PSoC4/BLE_eventHandler.c **** ******************************************************************************/
1146:.\Generated_Source\PSoC4/BLE_eventHandler.c **** void CyBle_EventHandler(uint8 eventCode, void *eventParam)
1147:.\Generated_Source\PSoC4/BLE_eventHandler.c **** {
 490              		.loc 1 1147 0
 491              		.cfi_startproc
 492 0000 80B5     		push	{r7, lr}
 493              		.cfi_def_cfa_offset 8
 494              		.cfi_offset 7, -8
 495              		.cfi_offset 14, -4
ARM GAS  C:\Users\Evan\AppData\Local\Temp\ccmgTxtA.s 			page 30


 496 0002 84B0     		sub	sp, sp, #16
 497              		.cfi_def_cfa_offset 24
 498 0004 00AF     		add	r7, sp, #0
 499              		.cfi_def_cfa_register 7
 500 0006 021C     		mov	r2, r0
 501 0008 3960     		str	r1, [r7]
 502 000a FB1D     		add	r3, r7, #7
 503 000c 1A70     		strb	r2, [r3]
1148:.\Generated_Source\PSoC4/BLE_eventHandler.c ****     cyBle_eventHandlerFlag |= CYBLE_CALLBACK;
 504              		.loc 1 1148 0
 505 000e C54B     		ldr	r3, .L74
 506 0010 1B78     		ldrb	r3, [r3]
 507 0012 DBB2     		uxtb	r3, r3
 508 0014 0122     		mov	r2, #1
 509 0016 1343     		orr	r3, r2
 510 0018 DAB2     		uxtb	r2, r3
 511 001a C24B     		ldr	r3, .L74
 512 001c 1A70     		strb	r2, [r3]
1149:.\Generated_Source\PSoC4/BLE_eventHandler.c **** 
1150:.\Generated_Source\PSoC4/BLE_eventHandler.c ****     /* Common Profile event handling */
1151:.\Generated_Source\PSoC4/BLE_eventHandler.c ****     switch(eventCode)
 513              		.loc 1 1151 0
 514 001e FB1D     		add	r3, r7, #7
 515 0020 1B78     		ldrb	r3, [r3]
 516 0022 412B     		cmp	r3, #65
 517 0024 00D1     		bne	.LCB424
 518 0026 13E1     		b	.L32	@long jump
 519              	.LCB424:
 520 0028 23DC     		bgt	.L33
 521 002a 212B     		cmp	r3, #33
 522 002c 00D1     		bne	.LCB428
 523 002e A7E0     		b	.L34	@long jump
 524              	.LCB428:
 525 0030 0DDC     		bgt	.L35
 526 0032 022B     		cmp	r3, #2
 527 0034 00D1     		bne	.LCB432
 528 0036 99E0     		b	.L36	@long jump
 529              	.LCB432:
 530 0038 02DC     		bgt	.L37
 531 003a 012B     		cmp	r3, #1
 532 003c 41D0     		beq	.L38
1152:.\Generated_Source\PSoC4/BLE_eventHandler.c ****     {
1153:.\Generated_Source\PSoC4/BLE_eventHandler.c ****         /**********************************************************
1154:.\Generated_Source\PSoC4/BLE_eventHandler.c ****         ##General events
1155:.\Generated_Source\PSoC4/BLE_eventHandler.c ****         ***********************************************************/
1156:.\Generated_Source\PSoC4/BLE_eventHandler.c ****         case CYBLE_EVT_STACK_ON:
1157:.\Generated_Source\PSoC4/BLE_eventHandler.c ****         #if(CYBLE_MODE_PROFILE)
1158:.\Generated_Source\PSoC4/BLE_eventHandler.c ****         {
1159:.\Generated_Source\PSoC4/BLE_eventHandler.c ****             CYBLE_BLESS_PWR_IN_DB_T bleSsPowerLevel;
1160:.\Generated_Source\PSoC4/BLE_eventHandler.c ****             
1161:.\Generated_Source\PSoC4/BLE_eventHandler.c ****             /* Set Tx Power Level for advertising and connection channels */
1162:.\Generated_Source\PSoC4/BLE_eventHandler.c ****             bleSsPowerLevel.blePwrLevelInDbm = CYBLE_TX_POWER_LEVEL;
1163:.\Generated_Source\PSoC4/BLE_eventHandler.c ****             bleSsPowerLevel.bleSsChId = CYBLE_LL_ADV_CH_TYPE;
1164:.\Generated_Source\PSoC4/BLE_eventHandler.c ****             (void) CyBle_SetTxPowerLevel (&bleSsPowerLevel);
1165:.\Generated_Source\PSoC4/BLE_eventHandler.c ****             bleSsPowerLevel.blePwrLevelInDbm = CYBLE_TX_POWER_LEVEL;
1166:.\Generated_Source\PSoC4/BLE_eventHandler.c ****             bleSsPowerLevel.bleSsChId = CYBLE_LL_CONN_CH_TYPE;
1167:.\Generated_Source\PSoC4/BLE_eventHandler.c ****             (void) CyBle_SetTxPowerLevel (&bleSsPowerLevel);
ARM GAS  C:\Users\Evan\AppData\Local\Temp\ccmgTxtA.s 			page 31


1168:.\Generated_Source\PSoC4/BLE_eventHandler.c ****         }
1169:.\Generated_Source\PSoC4/BLE_eventHandler.c ****         #endif /* CYBLE_MODE_PROFILE */
1170:.\Generated_Source\PSoC4/BLE_eventHandler.c ****         #if (CYBLE_GATT_ROLE_SERVER || CYBLE_GATT_ROLE_CLIENT)
1171:.\Generated_Source\PSoC4/BLE_eventHandler.c ****             /* Set device Address  */
1172:.\Generated_Source\PSoC4/BLE_eventHandler.c ****             if(CyBle_IsDeviceAddressValid(cyBle_sflashDeviceAddress) != 0u)
1173:.\Generated_Source\PSoC4/BLE_eventHandler.c ****             {
1174:.\Generated_Source\PSoC4/BLE_eventHandler.c ****                 (void) CyBle_SetDeviceAddress(cyBle_sflashDeviceAddress);
1175:.\Generated_Source\PSoC4/BLE_eventHandler.c ****                 #if(CYBLE_GAP_ROLE_PERIPHERAL || CYBLE_GAP_ROLE_BROADCASTER)
1176:.\Generated_Source\PSoC4/BLE_eventHandler.c ****                     CyBle_ChangeAdDeviceAddress(cyBle_sflashDeviceAddress, 0u);
1177:.\Generated_Source\PSoC4/BLE_eventHandler.c ****                     CyBle_ChangeAdDeviceAddress(cyBle_sflashDeviceAddress, 1u);
1178:.\Generated_Source\PSoC4/BLE_eventHandler.c ****                 #endif /* CYBLE_GAP_ROLE_PERIPHERAL || CYBLE_GAP_ROLE_BROADCASTER */    
1179:.\Generated_Source\PSoC4/BLE_eventHandler.c ****             }
1180:.\Generated_Source\PSoC4/BLE_eventHandler.c ****             else
1181:.\Generated_Source\PSoC4/BLE_eventHandler.c ****             {
1182:.\Generated_Source\PSoC4/BLE_eventHandler.c ****             #if (SILICON_GENERATED_DEVICE_ADDRESS != 0u)
1183:.\Generated_Source\PSoC4/BLE_eventHandler.c ****                 cyBle_deviceAddress.bdAddr[0] = CYBLE_SFLASH_DIE_X_REG;
1184:.\Generated_Source\PSoC4/BLE_eventHandler.c ****                 cyBle_deviceAddress.bdAddr[1] = CYBLE_SFLASH_DIE_Y_REG;
1185:.\Generated_Source\PSoC4/BLE_eventHandler.c ****                 cyBle_deviceAddress.bdAddr[2] = CYBLE_SFLASH_DIE_WAFER_REG;
1186:.\Generated_Source\PSoC4/BLE_eventHandler.c ****             #endif /* SILICON_GENERATED_DEVICE_ADDRESS != 0u */
1187:.\Generated_Source\PSoC4/BLE_eventHandler.c ****                 (void) CyBle_SetDeviceAddress(&cyBle_deviceAddress);
1188:.\Generated_Source\PSoC4/BLE_eventHandler.c ****                 #if(CYBLE_GAP_ROLE_PERIPHERAL || CYBLE_GAP_ROLE_BROADCASTER)
1189:.\Generated_Source\PSoC4/BLE_eventHandler.c ****                     CyBle_ChangeAdDeviceAddress(&cyBle_deviceAddress, 0u);
1190:.\Generated_Source\PSoC4/BLE_eventHandler.c ****                     CyBle_ChangeAdDeviceAddress(&cyBle_deviceAddress, 1u);
1191:.\Generated_Source\PSoC4/BLE_eventHandler.c ****                 #endif /* CYBLE_GAP_ROLE_PERIPHERAL || CYBLE_GAP_ROLE_BROADCASTER */    
1192:.\Generated_Source\PSoC4/BLE_eventHandler.c ****             }
1193:.\Generated_Source\PSoC4/BLE_eventHandler.c ****             /* Set device IO Capability  */
1194:.\Generated_Source\PSoC4/BLE_eventHandler.c ****             (void) CyBle_GapSetIoCap(CYBLE_IO_CAPABILITY);    
1195:.\Generated_Source\PSoC4/BLE_eventHandler.c ****         #endif /* CYBLE_GATT_ROLE_SERVER || CYBLE_GATT_ROLE_CLIENT */
1196:.\Generated_Source\PSoC4/BLE_eventHandler.c ****             CyBle_SetState(CYBLE_STATE_DISCONNECTED);
1197:.\Generated_Source\PSoC4/BLE_eventHandler.c ****             break;
1198:.\Generated_Source\PSoC4/BLE_eventHandler.c ****         case CYBLE_EVT_TIMEOUT:
1199:.\Generated_Source\PSoC4/BLE_eventHandler.c ****             CyBle_TimeOutEventHandler((CYBLE_TO_REASON_CODE_T *)eventParam);
1200:.\Generated_Source\PSoC4/BLE_eventHandler.c ****             break;
1201:.\Generated_Source\PSoC4/BLE_eventHandler.c ****     	case CYBLE_EVT_STACK_BUSY_STATUS:
1202:.\Generated_Source\PSoC4/BLE_eventHandler.c ****             cyBle_busyStatus = *(uint8 *)eventParam;
1203:.\Generated_Source\PSoC4/BLE_eventHandler.c ****             break;
1204:.\Generated_Source\PSoC4/BLE_eventHandler.c **** 
1205:.\Generated_Source\PSoC4/BLE_eventHandler.c ****         /**********************************************************
1206:.\Generated_Source\PSoC4/BLE_eventHandler.c ****         ##GAP events
1207:.\Generated_Source\PSoC4/BLE_eventHandler.c ****         ***********************************************************/
1208:.\Generated_Source\PSoC4/BLE_eventHandler.c ****         case CYBLE_EVT_GAP_AUTH_REQ:
1209:.\Generated_Source\PSoC4/BLE_eventHandler.c ****         #if(CYBLE_MODE_PROFILE)
1210:.\Generated_Source\PSoC4/BLE_eventHandler.c ****             if(0u == (cyBle_eventHandlerFlag & CYBLE_DISABLE_AUTOMATIC_AUTH))
1211:.\Generated_Source\PSoC4/BLE_eventHandler.c ****             {
1212:.\Generated_Source\PSoC4/BLE_eventHandler.c ****                 /* If the responding device does not support pairing then the responding 
1213:.\Generated_Source\PSoC4/BLE_eventHandler.c ****                    device shall respond using the Pairing Failed message with the error 
1214:.\Generated_Source\PSoC4/BLE_eventHandler.c ****                    code "Pairing Not Supported" otherwise it responds with a Pairing 
1215:.\Generated_Source\PSoC4/BLE_eventHandler.c ****                    Response message.
1216:.\Generated_Source\PSoC4/BLE_eventHandler.c ****                 */
1217:.\Generated_Source\PSoC4/BLE_eventHandler.c ****                 if(cyBle_authInfo.security == (CYBLE_GAP_SEC_MODE_1 | CYBLE_GAP_SEC_LEVEL_1))
1218:.\Generated_Source\PSoC4/BLE_eventHandler.c ****                 {
1219:.\Generated_Source\PSoC4/BLE_eventHandler.c ****                     cyBle_authInfo.authErr = CYBLE_GAP_AUTH_ERROR_PAIRING_NOT_SUPPORTED;
1220:.\Generated_Source\PSoC4/BLE_eventHandler.c ****                 }    
1221:.\Generated_Source\PSoC4/BLE_eventHandler.c ****             #if(CYBLE_GAP_ROLE_PERIPHERAL)
1222:.\Generated_Source\PSoC4/BLE_eventHandler.c ****                 (void)CyBle_GappAuthReqReply(cyBle_connHandle.bdHandle, &cyBle_authInfo);
1223:.\Generated_Source\PSoC4/BLE_eventHandler.c ****             #endif /* CYBLE_GAP_ROLE_PERIPHERAL */
1224:.\Generated_Source\PSoC4/BLE_eventHandler.c ****             #if (CYBLE_GAP_ROLE_CENTRAL)
ARM GAS  C:\Users\Evan\AppData\Local\Temp\ccmgTxtA.s 			page 32


1225:.\Generated_Source\PSoC4/BLE_eventHandler.c ****                 (void)CyBle_GapAuthReq(cyBle_connHandle.bdHandle, &cyBle_authInfo);
1226:.\Generated_Source\PSoC4/BLE_eventHandler.c ****             #endif /* CYBLE_GAP_ROLE_CENTRAL */
1227:.\Generated_Source\PSoC4/BLE_eventHandler.c ****             }
1228:.\Generated_Source\PSoC4/BLE_eventHandler.c ****         #endif /* CYBLE_MODE_PROFILE */
1229:.\Generated_Source\PSoC4/BLE_eventHandler.c ****             break;
1230:.\Generated_Source\PSoC4/BLE_eventHandler.c **** 
1231:.\Generated_Source\PSoC4/BLE_eventHandler.c ****         case CYBLE_EVT_GAP_CONNECTION_UPDATE_COMPLETE:
1232:.\Generated_Source\PSoC4/BLE_eventHandler.c ****             CyBle_GapConnUpdateCompleteEventHandler((const CYBLE_GAP_CONN_PARAM_UPDATED_IN_CONTROLL
1233:.\Generated_Source\PSoC4/BLE_eventHandler.c ****             break;
1234:.\Generated_Source\PSoC4/BLE_eventHandler.c ****             
1235:.\Generated_Source\PSoC4/BLE_eventHandler.c ****         case CYBLE_EVT_GAP_DEVICE_CONNECTED:
1236:.\Generated_Source\PSoC4/BLE_eventHandler.c ****             CyBle_GapConnUpdateCompleteEventHandler((const CYBLE_GAP_CONN_PARAM_UPDATED_IN_CONTROLL
1237:.\Generated_Source\PSoC4/BLE_eventHandler.c ****             #if(CYBLE_GAP_ROLE_CENTRAL)
1238:.\Generated_Source\PSoC4/BLE_eventHandler.c ****                 if(cyBle_connectingTimeout != 0u)
1239:.\Generated_Source\PSoC4/BLE_eventHandler.c ****                 {
1240:.\Generated_Source\PSoC4/BLE_eventHandler.c ****                    (void)CyBle_StopTimer();
1241:.\Generated_Source\PSoC4/BLE_eventHandler.c ****                 }
1242:.\Generated_Source\PSoC4/BLE_eventHandler.c ****             #endif /* CYBLE_GAP_ROLE_CENTRAL */
1243:.\Generated_Source\PSoC4/BLE_eventHandler.c ****             CyBle_SetState(CYBLE_STATE_CONNECTED);
1244:.\Generated_Source\PSoC4/BLE_eventHandler.c ****             break;
1245:.\Generated_Source\PSoC4/BLE_eventHandler.c **** 
1246:.\Generated_Source\PSoC4/BLE_eventHandler.c ****         case CYBLE_EVT_GAP_DEVICE_DISCONNECTED:
1247:.\Generated_Source\PSoC4/BLE_eventHandler.c ****             CyBle_SetState(CYBLE_STATE_DISCONNECTED);
1248:.\Generated_Source\PSoC4/BLE_eventHandler.c ****             break;
1249:.\Generated_Source\PSoC4/BLE_eventHandler.c ****         #if(CYBLE_GAP_ROLE_PERIPHERAL || CYBLE_GAP_ROLE_BROADCASTER)
1250:.\Generated_Source\PSoC4/BLE_eventHandler.c ****             
1251:.\Generated_Source\PSoC4/BLE_eventHandler.c ****         case CYBLE_EVT_GAPP_ADVERTISEMENT_START_STOP:
1252:.\Generated_Source\PSoC4/BLE_eventHandler.c ****             #ifdef CYBLE_CPS_SERVER
1253:.\Generated_Source\PSoC4/BLE_eventHandler.c ****                 #if(CYBLE_GAP_ROLE_BROADCASTER)
1254:.\Generated_Source\PSoC4/BLE_eventHandler.c ****                     CyBle_CpssAdvertisementStartStopEventHandler();
1255:.\Generated_Source\PSoC4/BLE_eventHandler.c ****                 #endif /* CYBLE_GAP_ROLE_BROADCASTER */
1256:.\Generated_Source\PSoC4/BLE_eventHandler.c ****             #endif /* CYBLE_CPS_SERVER */
1257:.\Generated_Source\PSoC4/BLE_eventHandler.c ****             
1258:.\Generated_Source\PSoC4/BLE_eventHandler.c ****             if((CYBLE_STATE_CONNECTED != CyBle_GetState()) && ((cyBle_eventHandlerFlag & CYBLE_CALL
1259:.\Generated_Source\PSoC4/BLE_eventHandler.c ****             {
1260:.\Generated_Source\PSoC4/BLE_eventHandler.c ****                 /* After CyBle_GappStartAdvertisement first event indicates that advertising has be
1261:.\Generated_Source\PSoC4/BLE_eventHandler.c ****                 if(0u != (cyBle_eventHandlerFlag & CYBLE_START_FLAG))
1262:.\Generated_Source\PSoC4/BLE_eventHandler.c ****                 {
1263:.\Generated_Source\PSoC4/BLE_eventHandler.c ****                     CyBle_SetState(CYBLE_STATE_ADVERTISING);
1264:.\Generated_Source\PSoC4/BLE_eventHandler.c ****                     cyBle_eventHandlerFlag &= (uint8)~CYBLE_START_FLAG;
1265:.\Generated_Source\PSoC4/BLE_eventHandler.c ****                 }
1266:.\Generated_Source\PSoC4/BLE_eventHandler.c ****                 /* When application initiated stop advertisement */
1267:.\Generated_Source\PSoC4/BLE_eventHandler.c ****                 else if(0u != (cyBle_eventHandlerFlag & CYBLE_STOP_FLAG))
1268:.\Generated_Source\PSoC4/BLE_eventHandler.c ****                 {
1269:.\Generated_Source\PSoC4/BLE_eventHandler.c ****                     CyBle_SetState(CYBLE_STATE_DISCONNECTED);  
1270:.\Generated_Source\PSoC4/BLE_eventHandler.c ****                     cyBle_eventHandlerFlag &= (uint8)~CYBLE_STOP_FLAG;
1271:.\Generated_Source\PSoC4/BLE_eventHandler.c ****                 }
1272:.\Generated_Source\PSoC4/BLE_eventHandler.c ****                 else /* Following event indicates that advertising has been stopped */
1273:.\Generated_Source\PSoC4/BLE_eventHandler.c ****                 {
1274:.\Generated_Source\PSoC4/BLE_eventHandler.c ****                     if(CYBLE_STATE_ADVERTISING == CyBle_GetState())
1275:.\Generated_Source\PSoC4/BLE_eventHandler.c ****                     {
1276:.\Generated_Source\PSoC4/BLE_eventHandler.c ****                         CyBle_SetState(CYBLE_STATE_DISCONNECTED);
1277:.\Generated_Source\PSoC4/BLE_eventHandler.c ****                     #if (CYBLE_SLOW_ADV_ENABLED != 0u)
1278:.\Generated_Source\PSoC4/BLE_eventHandler.c ****                         if(cyBle_advertisingIntervalType == CYBLE_ADVERTISING_FAST)
1279:.\Generated_Source\PSoC4/BLE_eventHandler.c ****                         {
1280:.\Generated_Source\PSoC4/BLE_eventHandler.c ****                             /* When fast advertising time out occur: Start slow advertising */
1281:.\Generated_Source\PSoC4/BLE_eventHandler.c ****                             if(CYBLE_ERROR_OK == CyBle_GappStartAdvertisement(CYBLE_ADVERTISING_SLO
ARM GAS  C:\Users\Evan\AppData\Local\Temp\ccmgTxtA.s 			page 33


1282:.\Generated_Source\PSoC4/BLE_eventHandler.c ****                             {
1283:.\Generated_Source\PSoC4/BLE_eventHandler.c ****                                 CyBle_SetState(CYBLE_STATE_ADVERTISING);
1284:.\Generated_Source\PSoC4/BLE_eventHandler.c ****                             }
1285:.\Generated_Source\PSoC4/BLE_eventHandler.c ****                         }
1286:.\Generated_Source\PSoC4/BLE_eventHandler.c ****                     #endif /* CYBLE_SLOW_ADV_ENABLED */
1287:.\Generated_Source\PSoC4/BLE_eventHandler.c ****                     }
1288:.\Generated_Source\PSoC4/BLE_eventHandler.c ****                 }
1289:.\Generated_Source\PSoC4/BLE_eventHandler.c ****             }
1290:.\Generated_Source\PSoC4/BLE_eventHandler.c ****             break;
1291:.\Generated_Source\PSoC4/BLE_eventHandler.c ****         #endif /* CYBLE_GAP_ROLE_PERIPHERAL || CYBLE_GAP_ROLE_BROADCASTER */
1292:.\Generated_Source\PSoC4/BLE_eventHandler.c ****         
1293:.\Generated_Source\PSoC4/BLE_eventHandler.c ****         #if(CYBLE_GAP_ROLE_CENTRAL || CYBLE_GAP_ROLE_OBSERVER)    
1294:.\Generated_Source\PSoC4/BLE_eventHandler.c ****         case CYBLE_EVT_GAPC_SCAN_START_STOP:
1295:.\Generated_Source\PSoC4/BLE_eventHandler.c ****             #ifdef CYBLE_CPS_CLIENT
1296:.\Generated_Source\PSoC4/BLE_eventHandler.c ****                 CyBle_CpscScanStartStopEventHandler();
1297:.\Generated_Source\PSoC4/BLE_eventHandler.c ****             #endif /* CYBLE_CPS_CLIENT */
1298:.\Generated_Source\PSoC4/BLE_eventHandler.c ****             
1299:.\Generated_Source\PSoC4/BLE_eventHandler.c ****             if((CYBLE_STATE_CONNECTED != CyBle_GetState()) && ((cyBle_eventHandlerFlag & CYBLE_CALL
1300:.\Generated_Source\PSoC4/BLE_eventHandler.c ****             {
1301:.\Generated_Source\PSoC4/BLE_eventHandler.c ****                 /* After CyBle_GapcStartScan first event indicates that scanning has been started *
1302:.\Generated_Source\PSoC4/BLE_eventHandler.c ****                 if(0u != (cyBle_eventHandlerFlag & CYBLE_START_FLAG))
1303:.\Generated_Source\PSoC4/BLE_eventHandler.c ****                 {
1304:.\Generated_Source\PSoC4/BLE_eventHandler.c ****                     CyBle_SetState(CYBLE_STATE_SCANNING);
1305:.\Generated_Source\PSoC4/BLE_eventHandler.c ****                     cyBle_eventHandlerFlag &= (uint8)~CYBLE_START_FLAG;
1306:.\Generated_Source\PSoC4/BLE_eventHandler.c ****                 }
1307:.\Generated_Source\PSoC4/BLE_eventHandler.c ****                 /* When application initiated stop scanning */
1308:.\Generated_Source\PSoC4/BLE_eventHandler.c ****                 else if(0u != (cyBle_eventHandlerFlag & CYBLE_STOP_FLAG))
1309:.\Generated_Source\PSoC4/BLE_eventHandler.c ****                 {
1310:.\Generated_Source\PSoC4/BLE_eventHandler.c ****                     CyBle_SetState(CYBLE_STATE_DISCONNECTED);  
1311:.\Generated_Source\PSoC4/BLE_eventHandler.c ****                     cyBle_eventHandlerFlag &= (uint8)~CYBLE_STOP_FLAG;
1312:.\Generated_Source\PSoC4/BLE_eventHandler.c ****                 }
1313:.\Generated_Source\PSoC4/BLE_eventHandler.c ****                 else /* Following event indicates that scanning has been stopped by stack */
1314:.\Generated_Source\PSoC4/BLE_eventHandler.c ****                 {
1315:.\Generated_Source\PSoC4/BLE_eventHandler.c ****                     if(CYBLE_STATE_SCANNING == CyBle_GetState())
1316:.\Generated_Source\PSoC4/BLE_eventHandler.c ****                     {
1317:.\Generated_Source\PSoC4/BLE_eventHandler.c ****                         CyBle_SetState(CYBLE_STATE_DISCONNECTED);  
1318:.\Generated_Source\PSoC4/BLE_eventHandler.c ****                     #if (CYBLE_SLOW_SCAN_ENABLED != 0u)
1319:.\Generated_Source\PSoC4/BLE_eventHandler.c ****                         if(cyBle_scanningIntervalType == CYBLE_SCANNING_FAST)
1320:.\Generated_Source\PSoC4/BLE_eventHandler.c ****                         {
1321:.\Generated_Source\PSoC4/BLE_eventHandler.c ****                             /* When fast scanning time out occur: Start slow scanning */
1322:.\Generated_Source\PSoC4/BLE_eventHandler.c ****                             if(CYBLE_ERROR_OK == CyBle_GapcStartScan(CYBLE_SCANNING_SLOW))
1323:.\Generated_Source\PSoC4/BLE_eventHandler.c ****                             {
1324:.\Generated_Source\PSoC4/BLE_eventHandler.c ****                                 CyBle_SetState(CYBLE_STATE_SCANNING);
1325:.\Generated_Source\PSoC4/BLE_eventHandler.c ****                             }
1326:.\Generated_Source\PSoC4/BLE_eventHandler.c ****                         }
1327:.\Generated_Source\PSoC4/BLE_eventHandler.c ****                     #endif /* CYBLE_SLOW_ADV_ENABLED */
1328:.\Generated_Source\PSoC4/BLE_eventHandler.c ****                     }
1329:.\Generated_Source\PSoC4/BLE_eventHandler.c ****                 }
1330:.\Generated_Source\PSoC4/BLE_eventHandler.c ****             }
1331:.\Generated_Source\PSoC4/BLE_eventHandler.c ****             break;
1332:.\Generated_Source\PSoC4/BLE_eventHandler.c ****         #endif /* CYBLE_GAP_ROLE_CENTRAL || CYBLE_GAP_ROLE_OBSERVER */
1333:.\Generated_Source\PSoC4/BLE_eventHandler.c **** 
1334:.\Generated_Source\PSoC4/BLE_eventHandler.c ****         /**********************************************************
1335:.\Generated_Source\PSoC4/BLE_eventHandler.c ****         ##L2AP events 
1336:.\Generated_Source\PSoC4/BLE_eventHandler.c ****         ***********************************************************/
1337:.\Generated_Source\PSoC4/BLE_eventHandler.c ****         case CYBLE_EVT_L2CAP_CONN_PARAM_UPDATE_RSP:
1338:.\Generated_Source\PSoC4/BLE_eventHandler.c ****             CyBle_L2Cap_ConnParamUpdateRspEventHandler(*(uint16 *)eventParam);
ARM GAS  C:\Users\Evan\AppData\Local\Temp\ccmgTxtA.s 			page 34


1339:.\Generated_Source\PSoC4/BLE_eventHandler.c ****             break;
1340:.\Generated_Source\PSoC4/BLE_eventHandler.c ****         
1341:.\Generated_Source\PSoC4/BLE_eventHandler.c ****         /**********************************************************
1342:.\Generated_Source\PSoC4/BLE_eventHandler.c ****         ##GATT events
1343:.\Generated_Source\PSoC4/BLE_eventHandler.c ****         ***********************************************************/        
1344:.\Generated_Source\PSoC4/BLE_eventHandler.c ****         case CYBLE_EVT_GATT_CONNECT_IND:
1345:.\Generated_Source\PSoC4/BLE_eventHandler.c ****             cyBle_connHandle = *(CYBLE_CONN_HANDLE_T *)eventParam;
1346:.\Generated_Source\PSoC4/BLE_eventHandler.c ****             
1347:.\Generated_Source\PSoC4/BLE_eventHandler.c ****         #if((CYBLE_GATT_ROLE_SERVER) && (CYBLE_GATT_DB_CCCD_COUNT != 0u))
1348:.\Generated_Source\PSoC4/BLE_eventHandler.c ****             /* Init CCCD values in RAM */
1349:.\Generated_Source\PSoC4/BLE_eventHandler.c ****         	(void) memcpy (cyBle_attValuesCCCD, cyBle_attValuesCCCDFlashMemory[cyBle_connHandle.bdHand
1350:.\Generated_Source\PSoC4/BLE_eventHandler.c ****                             CYBLE_GATT_DB_CCCD_COUNT);
1351:.\Generated_Source\PSoC4/BLE_eventHandler.c ****         #endif /* CYBLE_GATT_ROLE_SERVER */
1352:.\Generated_Source\PSoC4/BLE_eventHandler.c ****         
1353:.\Generated_Source\PSoC4/BLE_eventHandler.c ****         #if (CYBLE_GATT_ROLE_CLIENT)
1354:.\Generated_Source\PSoC4/BLE_eventHandler.c ****             CyBle_SetClientState(CYBLE_CLIENT_STATE_CONNECTED);
1355:.\Generated_Source\PSoC4/BLE_eventHandler.c ****         #endif /* CYBLE_GATT_ROLE_CLIENT */
1356:.\Generated_Source\PSoC4/BLE_eventHandler.c ****         
1357:.\Generated_Source\PSoC4/BLE_eventHandler.c ****             CyBle_GattConnectReqHandler();
1358:.\Generated_Source\PSoC4/BLE_eventHandler.c ****             break;
1359:.\Generated_Source\PSoC4/BLE_eventHandler.c **** 
1360:.\Generated_Source\PSoC4/BLE_eventHandler.c ****         case CYBLE_EVT_GATT_DISCONNECT_IND:
1361:.\Generated_Source\PSoC4/BLE_eventHandler.c ****             CyBle_GattDisconnectEventHandler();
1362:.\Generated_Source\PSoC4/BLE_eventHandler.c ****             break;
1363:.\Generated_Source\PSoC4/BLE_eventHandler.c **** 
1364:.\Generated_Source\PSoC4/BLE_eventHandler.c ****     #if((CYBLE_GATT_ROLE_SERVER) || (CYBLE_GATT_ROLE_CLIENT))
1365:.\Generated_Source\PSoC4/BLE_eventHandler.c ****         case CYBLE_EVT_GATTS_XCNHG_MTU_REQ:
1366:.\Generated_Source\PSoC4/BLE_eventHandler.c ****             {
1367:.\Generated_Source\PSoC4/BLE_eventHandler.c ****                 uint16 cyBle_mtuSize;
1368:.\Generated_Source\PSoC4/BLE_eventHandler.c ****                 if(CYBLE_GATT_MTU > ((CYBLE_GATT_XCHG_MTU_PARAM_T *)eventParam)->mtu)
1369:.\Generated_Source\PSoC4/BLE_eventHandler.c ****                 {
1370:.\Generated_Source\PSoC4/BLE_eventHandler.c ****                     cyBle_mtuSize = ((CYBLE_GATT_XCHG_MTU_PARAM_T *)eventParam)->mtu;
1371:.\Generated_Source\PSoC4/BLE_eventHandler.c ****                 }
1372:.\Generated_Source\PSoC4/BLE_eventHandler.c ****                 else
1373:.\Generated_Source\PSoC4/BLE_eventHandler.c ****                 {
1374:.\Generated_Source\PSoC4/BLE_eventHandler.c ****                     cyBle_mtuSize = CYBLE_GATT_MTU;
1375:.\Generated_Source\PSoC4/BLE_eventHandler.c ****                 }
1376:.\Generated_Source\PSoC4/BLE_eventHandler.c ****                 (void)CyBle_GattsExchangeMtuRsp(((CYBLE_GATT_XCHG_MTU_PARAM_T *)eventParam)->connHa
1377:.\Generated_Source\PSoC4/BLE_eventHandler.c ****             }
1378:.\Generated_Source\PSoC4/BLE_eventHandler.c ****             break;
1379:.\Generated_Source\PSoC4/BLE_eventHandler.c ****     #endif /* CYBLE_GATT_ROLE_SERVER || CYBLE_GATT_ROLE_CLIENT */
1380:.\Generated_Source\PSoC4/BLE_eventHandler.c ****     
1381:.\Generated_Source\PSoC4/BLE_eventHandler.c ****     #if (CYBLE_GATT_ROLE_CLIENT)
1382:.\Generated_Source\PSoC4/BLE_eventHandler.c ****         case CYBLE_EVT_GAPC_SCAN_PROGRESS_RESULT:
1383:.\Generated_Source\PSoC4/BLE_eventHandler.c ****         #ifdef CYBLE_CPS_CLIENT
1384:.\Generated_Source\PSoC4/BLE_eventHandler.c ****                 CyBle_CpscScanProcessEventHandler((CYBLE_GAPC_ADV_REPORT_T *)eventParam);
1385:.\Generated_Source\PSoC4/BLE_eventHandler.c ****         #endif /* CYBLE_CPS_CLIENT */
1386:.\Generated_Source\PSoC4/BLE_eventHandler.c ****             break;
1387:.\Generated_Source\PSoC4/BLE_eventHandler.c ****     #endif /* CYBLE_GATT_ROLE_CLIENT */
1388:.\Generated_Source\PSoC4/BLE_eventHandler.c **** 
1389:.\Generated_Source\PSoC4/BLE_eventHandler.c ****     #if(CYBLE_GATT_ROLE_SERVER)
1390:.\Generated_Source\PSoC4/BLE_eventHandler.c ****         case CYBLE_EVT_GATTS_WRITE_REQ:
1391:.\Generated_Source\PSoC4/BLE_eventHandler.c ****             CyBle_WriteReqHandler((CYBLE_GATTS_WRITE_REQ_PARAM_T *)eventParam);
1392:.\Generated_Source\PSoC4/BLE_eventHandler.c ****             break;
1393:.\Generated_Source\PSoC4/BLE_eventHandler.c **** 
1394:.\Generated_Source\PSoC4/BLE_eventHandler.c ****         case CYBLE_EVT_GATTS_WRITE_CMD_REQ:
1395:.\Generated_Source\PSoC4/BLE_eventHandler.c ****         #ifdef CYBLE_IAS_SERVER
ARM GAS  C:\Users\Evan\AppData\Local\Temp\ccmgTxtA.s 			page 35


1396:.\Generated_Source\PSoC4/BLE_eventHandler.c ****             if((cyBle_eventHandlerFlag & CYBLE_CALLBACK) != 0u)
1397:.\Generated_Source\PSoC4/BLE_eventHandler.c ****             {
1398:.\Generated_Source\PSoC4/BLE_eventHandler.c ****                 (void)CyBle_IassWriteCmdEventHandler((CYBLE_GATTS_WRITE_REQ_PARAM_T *)eventParam);
1399:.\Generated_Source\PSoC4/BLE_eventHandler.c ****             }
1400:.\Generated_Source\PSoC4/BLE_eventHandler.c ****         #endif /* CYBLE_IAS_SERVER */
1401:.\Generated_Source\PSoC4/BLE_eventHandler.c ****         #ifdef CYBLE_HIDS_SERVER
1402:.\Generated_Source\PSoC4/BLE_eventHandler.c ****             if((cyBle_eventHandlerFlag & CYBLE_CALLBACK) != 0u)
1403:.\Generated_Source\PSoC4/BLE_eventHandler.c ****             {
1404:.\Generated_Source\PSoC4/BLE_eventHandler.c ****                 (void)CyBle_HidssWriteEventHandler((CYBLE_GATTS_WRITE_REQ_PARAM_T *)eventParam);
1405:.\Generated_Source\PSoC4/BLE_eventHandler.c ****             }
1406:.\Generated_Source\PSoC4/BLE_eventHandler.c ****         #endif /* CYBLE_HIDS_SERVER */
1407:.\Generated_Source\PSoC4/BLE_eventHandler.c ****         #ifdef CYBLE_PASS_SERVER
1408:.\Generated_Source\PSoC4/BLE_eventHandler.c ****             if((cyBle_eventHandlerFlag & CYBLE_CALLBACK) != 0u)
1409:.\Generated_Source\PSoC4/BLE_eventHandler.c ****             {
1410:.\Generated_Source\PSoC4/BLE_eventHandler.c ****                 (void)CyBle_PasssWriteCmdEventHandler((CYBLE_GATTS_WRITE_REQ_PARAM_T *)eventParam);
1411:.\Generated_Source\PSoC4/BLE_eventHandler.c ****             }
1412:.\Generated_Source\PSoC4/BLE_eventHandler.c ****         #endif /* CYBLE_PASS_SERVER */
1413:.\Generated_Source\PSoC4/BLE_eventHandler.c ****         #ifdef CYBLE_RTUS_SERVER
1414:.\Generated_Source\PSoC4/BLE_eventHandler.c ****             if((cyBle_eventHandlerFlag & CYBLE_CALLBACK) != 0u)
1415:.\Generated_Source\PSoC4/BLE_eventHandler.c ****             {
1416:.\Generated_Source\PSoC4/BLE_eventHandler.c ****                 (void)CyBle_RtussWriteCmdEventHandler((CYBLE_GATTS_WRITE_REQ_PARAM_T *)eventParam);
1417:.\Generated_Source\PSoC4/BLE_eventHandler.c ****             }
1418:.\Generated_Source\PSoC4/BLE_eventHandler.c ****         #endif /* CYBLE_RTUS_SERVER */
1419:.\Generated_Source\PSoC4/BLE_eventHandler.c ****         #ifdef CYBLE_SCPS_SERVER
1420:.\Generated_Source\PSoC4/BLE_eventHandler.c ****             if((cyBle_eventHandlerFlag & CYBLE_CALLBACK) != 0u)
1421:.\Generated_Source\PSoC4/BLE_eventHandler.c ****             {
1422:.\Generated_Source\PSoC4/BLE_eventHandler.c ****                 (void)CyBle_ScpssWriteEventHandler((CYBLE_GATTS_WRITE_REQ_PARAM_T *)eventParam);
1423:.\Generated_Source\PSoC4/BLE_eventHandler.c ****             }
1424:.\Generated_Source\PSoC4/BLE_eventHandler.c ****         #endif /* CYBLE_SCPS_SERVER */
1425:.\Generated_Source\PSoC4/BLE_eventHandler.c ****             break;
1426:.\Generated_Source\PSoC4/BLE_eventHandler.c ****             
1427:.\Generated_Source\PSoC4/BLE_eventHandler.c ****         case CYBLE_EVT_GATTS_HANDLE_VALUE_CNF:
1428:.\Generated_Source\PSoC4/BLE_eventHandler.c ****             CyBle_ValueConfirmation((CYBLE_CONN_HANDLE_T *)eventParam);
1429:.\Generated_Source\PSoC4/BLE_eventHandler.c ****             break;
1430:.\Generated_Source\PSoC4/BLE_eventHandler.c ****             
1431:.\Generated_Source\PSoC4/BLE_eventHandler.c ****     #endif /* CYBLE_GATT_ROLE_SERVER */
1432:.\Generated_Source\PSoC4/BLE_eventHandler.c **** 
1433:.\Generated_Source\PSoC4/BLE_eventHandler.c ****     #if (CYBLE_GATT_ROLE_CLIENT)
1434:.\Generated_Source\PSoC4/BLE_eventHandler.c ****         
1435:.\Generated_Source\PSoC4/BLE_eventHandler.c ****         case CYBLE_EVT_GATTC_READ_BY_GROUP_TYPE_RSP:
1436:.\Generated_Source\PSoC4/BLE_eventHandler.c ****             CyBle_ReadByGroupEventHandler((CYBLE_GATTC_READ_BY_GRP_RSP_PARAM_T *)eventParam);
1437:.\Generated_Source\PSoC4/BLE_eventHandler.c ****             break;
1438:.\Generated_Source\PSoC4/BLE_eventHandler.c **** 
1439:.\Generated_Source\PSoC4/BLE_eventHandler.c ****         case CYBLE_EVT_GATTC_READ_BY_TYPE_RSP:
1440:.\Generated_Source\PSoC4/BLE_eventHandler.c ****             CyBle_ReadByTypeEventHandler((CYBLE_GATTC_READ_BY_TYPE_RSP_PARAM_T *)eventParam);
1441:.\Generated_Source\PSoC4/BLE_eventHandler.c ****             break;
1442:.\Generated_Source\PSoC4/BLE_eventHandler.c **** 
1443:.\Generated_Source\PSoC4/BLE_eventHandler.c ****         case CYBLE_EVT_GATTC_FIND_INFO_RSP:
1444:.\Generated_Source\PSoC4/BLE_eventHandler.c ****             CyBle_FindInfoEventHandler((CYBLE_GATTC_FIND_INFO_RSP_PARAM_T *)eventParam);
1445:.\Generated_Source\PSoC4/BLE_eventHandler.c ****             break;
1446:.\Generated_Source\PSoC4/BLE_eventHandler.c **** 
1447:.\Generated_Source\PSoC4/BLE_eventHandler.c ****         case CYBLE_EVT_GATTC_ERROR_RSP:
1448:.\Generated_Source\PSoC4/BLE_eventHandler.c ****             CyBle_ErrorResponseEventHandler((CYBLE_GATTC_ERR_RSP_PARAM_T *)eventParam);
1449:.\Generated_Source\PSoC4/BLE_eventHandler.c ****             break;
1450:.\Generated_Source\PSoC4/BLE_eventHandler.c **** 
1451:.\Generated_Source\PSoC4/BLE_eventHandler.c ****         case CYBLE_EVT_GATTC_HANDLE_VALUE_NTF:
1452:.\Generated_Source\PSoC4/BLE_eventHandler.c ****             CyBle_NotificationEventHandler((CYBLE_GATTC_HANDLE_VALUE_NTF_PARAM_T *)eventParam);
ARM GAS  C:\Users\Evan\AppData\Local\Temp\ccmgTxtA.s 			page 36


1453:.\Generated_Source\PSoC4/BLE_eventHandler.c ****             break;
1454:.\Generated_Source\PSoC4/BLE_eventHandler.c **** 
1455:.\Generated_Source\PSoC4/BLE_eventHandler.c ****         case CYBLE_EVT_GATTC_HANDLE_VALUE_IND:
1456:.\Generated_Source\PSoC4/BLE_eventHandler.c ****             CyBle_GattcIndicationEventHandler((CYBLE_GATTC_HANDLE_VALUE_IND_PARAM_T *)eventParam);
1457:.\Generated_Source\PSoC4/BLE_eventHandler.c ****             CyBle_IndicationEventHandler((CYBLE_GATTC_HANDLE_VALUE_IND_PARAM_T *)eventParam);
1458:.\Generated_Source\PSoC4/BLE_eventHandler.c ****         
1459:.\Generated_Source\PSoC4/BLE_eventHandler.c ****             /* Respond with a Handle Value Confirmation when request handled */
1460:.\Generated_Source\PSoC4/BLE_eventHandler.c ****             if((cyBle_eventHandlerFlag & CYBLE_CALLBACK) == 0u)
1461:.\Generated_Source\PSoC4/BLE_eventHandler.c ****             {
1462:.\Generated_Source\PSoC4/BLE_eventHandler.c ****                 (void)CyBle_GattcConfirmation(((CYBLE_GATTC_HANDLE_VALUE_IND_PARAM_T *)eventParam)-
1463:.\Generated_Source\PSoC4/BLE_eventHandler.c ****             }
1464:.\Generated_Source\PSoC4/BLE_eventHandler.c ****             break;
1465:.\Generated_Source\PSoC4/BLE_eventHandler.c ****         
1466:.\Generated_Source\PSoC4/BLE_eventHandler.c ****         case CYBLE_EVT_GATTC_READ_RSP:
1467:.\Generated_Source\PSoC4/BLE_eventHandler.c ****             CyBle_ReadResponseEventHandler((CYBLE_GATTC_READ_RSP_PARAM_T *)eventParam);
1468:.\Generated_Source\PSoC4/BLE_eventHandler.c ****             break;
1469:.\Generated_Source\PSoC4/BLE_eventHandler.c **** 
1470:.\Generated_Source\PSoC4/BLE_eventHandler.c ****         case CYBLE_EVT_GATTC_WRITE_RSP:
1471:.\Generated_Source\PSoC4/BLE_eventHandler.c ****             CyBle_GattcWriteResponseEventHandler((CYBLE_CONN_HANDLE_T *)eventParam);
1472:.\Generated_Source\PSoC4/BLE_eventHandler.c ****             break;
1473:.\Generated_Source\PSoC4/BLE_eventHandler.c ****             
1474:.\Generated_Source\PSoC4/BLE_eventHandler.c ****     #endif /* CYBLE_GATT_ROLE_CLIENT */
1475:.\Generated_Source\PSoC4/BLE_eventHandler.c **** 
1476:.\Generated_Source\PSoC4/BLE_eventHandler.c ****     #if((CYBLE_GAP_ROLE_PERIPHERAL || CYBLE_GAP_ROLE_CENTRAL) && (CYBLE_BONDING_REQUIREMENT == CYBL
1477:.\Generated_Source\PSoC4/BLE_eventHandler.c **** 
1478:.\Generated_Source\PSoC4/BLE_eventHandler.c ****         case CYBLE_EVT_PENDING_FLASH_WRITE:
1479:.\Generated_Source\PSoC4/BLE_eventHandler.c ****             cyBle_pendingFlashWrite |= CYBLE_PENDING_STACK_FLASH_WRITE_BIT;
1480:.\Generated_Source\PSoC4/BLE_eventHandler.c ****             break;
1481:.\Generated_Source\PSoC4/BLE_eventHandler.c ****         
1482:.\Generated_Source\PSoC4/BLE_eventHandler.c ****     #endif  /* (CYBLE_BONDING_REQUIREMENT == CYBLE_BONDING_YES) */
1483:.\Generated_Source\PSoC4/BLE_eventHandler.c ****     
1484:.\Generated_Source\PSoC4/BLE_eventHandler.c ****         default:
1485:.\Generated_Source\PSoC4/BLE_eventHandler.c ****             break;
 533              		.loc 1 1485 0
 534 003e 90E1     		b	.L63
 535              	.L37:
1151:.\Generated_Source\PSoC4/BLE_eventHandler.c ****     switch(eventCode)
 536              		.loc 1 1151 0
 537 0040 052B     		cmp	r3, #5
 538 0042 00D1     		bne	.LCB442
 539 0044 97E0     		b	.L39	@long jump
 540              	.LCB442:
 541 0046 202B     		cmp	r3, #32
 542 0048 00D1     		bne	.LCB444
 543 004a 89E1     		b	.L73	@long jump
 544              	.LCB444:
 545              		.loc 1 1485 0
 546 004c 89E1     		b	.L63
 547              	.L35:
1151:.\Generated_Source\PSoC4/BLE_eventHandler.c ****     switch(eventCode)
 548              		.loc 1 1151 0
 549 004e 282B     		cmp	r3, #40
 550 0050 00D1     		bne	.LCB450
 551 0052 B9E0     		b	.L41	@long jump
 552              	.LCB450:
 553 0054 06DC     		bgt	.L42
 554 0056 262B     		cmp	r3, #38
ARM GAS  C:\Users\Evan\AppData\Local\Temp\ccmgTxtA.s 			page 37


 555 0058 00D1     		bne	.LCB454
 556 005a B9E0     		b	.L43	@long jump
 557              	.LCB454:
 558 005c 272B     		cmp	r3, #39
 559 005e 00D1     		bne	.LCB456
 560 0060 AAE0     		b	.L44	@long jump
 561              	.LCB456:
 562              		.loc 1 1485 0
 563 0062 7EE1     		b	.L63
 564              	.L42:
1151:.\Generated_Source\PSoC4/BLE_eventHandler.c ****     switch(eventCode)
 565              		.loc 1 1151 0
 566 0064 2A2B     		cmp	r3, #42
 567 0066 00D1     		bne	.LCB462
 568 0068 A1E0     		b	.L45	@long jump
 569              	.LCB462:
 570 006a 402B     		cmp	r3, #64
 571 006c 00D1     		bne	.LCB464
 572 006e 2FE1     		b	.L46	@long jump
 573              	.LCB464:
 574              		.loc 1 1485 0
 575 0070 77E1     		b	.L63
 576              	.L33:
1151:.\Generated_Source\PSoC4/BLE_eventHandler.c ****     switch(eventCode)
 577              		.loc 1 1151 0
 578 0072 492B     		cmp	r3, #73
 579 0074 00D1     		bne	.LCB470
 580 0076 4AE1     		b	.L47	@long jump
 581              	.LCB470:
 582 0078 11DC     		bgt	.L48
 583 007a 452B     		cmp	r3, #69
 584 007c 00D1     		bne	.LCB474
 585 007e 18E1     		b	.L49	@long jump
 586              	.LCB474:
 587 0080 06DC     		bgt	.L50
 588 0082 422B     		cmp	r3, #66
 589 0084 00D1     		bne	.LCB478
 590 0086 F3E0     		b	.L51	@long jump
 591              	.LCB478:
 592 0088 432B     		cmp	r3, #67
 593 008a 00D1     		bne	.LCB480
 594 008c F3E0     		b	.L52	@long jump
 595              	.LCB480:
 596              		.loc 1 1485 0
 597 008e 68E1     		b	.L63
 598              	.L50:
1151:.\Generated_Source\PSoC4/BLE_eventHandler.c ****     switch(eventCode)
 599              		.loc 1 1151 0
 600 0090 462B     		cmp	r3, #70
 601 0092 00D1     		bne	.LCB486
 602 0094 12E1     		b	.L53	@long jump
 603              	.LCB486:
 604 0096 472B     		cmp	r3, #71
 605 0098 00D1     		bne	.LCB488
 606 009a 14E1     		b	.L54	@long jump
 607              	.LCB488:
 608              		.loc 1 1485 0
ARM GAS  C:\Users\Evan\AppData\Local\Temp\ccmgTxtA.s 			page 38


 609 009c 61E1     		b	.L63
 610              	.L48:
1151:.\Generated_Source\PSoC4/BLE_eventHandler.c ****     switch(eventCode)
 611              		.loc 1 1151 0
 612 009e 532B     		cmp	r3, #83
 613 00a0 00D1     		bne	.LCB494
 614 00a2 1FE1     		b	.L55	@long jump
 615              	.LCB494:
 616 00a4 06DC     		bgt	.L56
 617 00a6 4D2B     		cmp	r3, #77
 618 00a8 00D1     		bne	.LCB498
 619 00aa 35E1     		b	.L57	@long jump
 620              	.LCB498:
 621 00ac 522B     		cmp	r3, #82
 622 00ae 00D1     		bne	.LCB500
 623 00b0 13E1     		b	.L58	@long jump
 624              	.LCB500:
 625              		.loc 1 1485 0
 626 00b2 56E1     		b	.L63
 627              	.L56:
1151:.\Generated_Source\PSoC4/BLE_eventHandler.c ****     switch(eventCode)
 628              		.loc 1 1151 0
 629 00b4 712B     		cmp	r3, #113
 630 00b6 00D1     		bne	.LCB506
 631 00b8 C4E0     		b	.L59	@long jump
 632              	.LCB506:
 633 00ba FA2B     		cmp	r3, #250
 634 00bc 00D1     		bne	.LCB508
 635 00be 47E1     		b	.L60	@long jump
 636              	.LCB508:
 637              		.loc 1 1485 0
 638 00c0 4FE1     		b	.L63
 639              	.L38:
 640              	.LBB2:
1162:.\Generated_Source\PSoC4/BLE_eventHandler.c ****             bleSsPowerLevel.blePwrLevelInDbm = CYBLE_TX_POWER_LEVEL;
 641              		.loc 1 1162 0
 642 00c2 3B1C     		mov	r3, r7
 643 00c4 0C33     		add	r3, r3, #12
 644 00c6 0722     		mov	r2, #7
 645 00c8 1A70     		strb	r2, [r3]
1163:.\Generated_Source\PSoC4/BLE_eventHandler.c ****             bleSsPowerLevel.bleSsChId = CYBLE_LL_ADV_CH_TYPE;
 646              		.loc 1 1163 0
 647 00ca 3B1C     		mov	r3, r7
 648 00cc 0C33     		add	r3, r3, #12
 649 00ce 0022     		mov	r2, #0
 650 00d0 5A70     		strb	r2, [r3, #1]
1164:.\Generated_Source\PSoC4/BLE_eventHandler.c ****             (void) CyBle_SetTxPowerLevel (&bleSsPowerLevel);
 651              		.loc 1 1164 0
 652 00d2 3B1C     		mov	r3, r7
 653 00d4 0C33     		add	r3, r3, #12
 654 00d6 181C     		mov	r0, r3
 655 00d8 FFF7FEFF 		bl	CyBle_SetTxPowerLevel
1165:.\Generated_Source\PSoC4/BLE_eventHandler.c ****             bleSsPowerLevel.blePwrLevelInDbm = CYBLE_TX_POWER_LEVEL;
 656              		.loc 1 1165 0
 657 00dc 3B1C     		mov	r3, r7
 658 00de 0C33     		add	r3, r3, #12
 659 00e0 0722     		mov	r2, #7
ARM GAS  C:\Users\Evan\AppData\Local\Temp\ccmgTxtA.s 			page 39


 660 00e2 1A70     		strb	r2, [r3]
1166:.\Generated_Source\PSoC4/BLE_eventHandler.c ****             bleSsPowerLevel.bleSsChId = CYBLE_LL_CONN_CH_TYPE;
 661              		.loc 1 1166 0
 662 00e4 3B1C     		mov	r3, r7
 663 00e6 0C33     		add	r3, r3, #12
 664 00e8 0122     		mov	r2, #1
 665 00ea 5A70     		strb	r2, [r3, #1]
1167:.\Generated_Source\PSoC4/BLE_eventHandler.c ****             (void) CyBle_SetTxPowerLevel (&bleSsPowerLevel);
 666              		.loc 1 1167 0
 667 00ec 3B1C     		mov	r3, r7
 668 00ee 0C33     		add	r3, r3, #12
 669 00f0 181C     		mov	r0, r3
 670 00f2 FFF7FEFF 		bl	CyBle_SetTxPowerLevel
 671              	.LBE2:
1172:.\Generated_Source\PSoC4/BLE_eventHandler.c ****             if(CyBle_IsDeviceAddressValid(cyBle_sflashDeviceAddress) != 0u)
 672              		.loc 1 1172 0
 673 00f6 8C4B     		ldr	r3, .L74+4
 674 00f8 1B68     		ldr	r3, [r3]
 675 00fa 181C     		mov	r0, r3
 676 00fc FFF7FEFF 		bl	CyBle_IsDeviceAddressValid
 677 0100 031C     		mov	r3, r0
 678 0102 002B     		cmp	r3, #0
 679 0104 11D0     		beq	.L61
1174:.\Generated_Source\PSoC4/BLE_eventHandler.c ****                 (void) CyBle_SetDeviceAddress(cyBle_sflashDeviceAddress);
 680              		.loc 1 1174 0
 681 0106 884B     		ldr	r3, .L74+4
 682 0108 1B68     		ldr	r3, [r3]
 683 010a 181C     		mov	r0, r3
 684 010c FFF7FEFF 		bl	CyBle_SetDeviceAddress
1176:.\Generated_Source\PSoC4/BLE_eventHandler.c ****                     CyBle_ChangeAdDeviceAddress(cyBle_sflashDeviceAddress, 0u);
 685              		.loc 1 1176 0
 686 0110 854B     		ldr	r3, .L74+4
 687 0112 1B68     		ldr	r3, [r3]
 688 0114 181C     		mov	r0, r3
 689 0116 0021     		mov	r1, #0
 690 0118 FFF7FEFF 		bl	CyBle_ChangeAdDeviceAddress
1177:.\Generated_Source\PSoC4/BLE_eventHandler.c ****                     CyBle_ChangeAdDeviceAddress(cyBle_sflashDeviceAddress, 1u);
 691              		.loc 1 1177 0
 692 011c 824B     		ldr	r3, .L74+4
 693 011e 1B68     		ldr	r3, [r3]
 694 0120 181C     		mov	r0, r3
 695 0122 0121     		mov	r1, #1
 696 0124 FFF7FEFF 		bl	CyBle_ChangeAdDeviceAddress
 697 0128 19E0     		b	.L62
 698              	.L61:
1183:.\Generated_Source\PSoC4/BLE_eventHandler.c ****                 cyBle_deviceAddress.bdAddr[0] = CYBLE_SFLASH_DIE_X_REG;
 699              		.loc 1 1183 0
 700 012a 804B     		ldr	r3, .L74+8
 701 012c 1A78     		ldrb	r2, [r3]
 702 012e 804B     		ldr	r3, .L74+12
 703 0130 1A70     		strb	r2, [r3]
1184:.\Generated_Source\PSoC4/BLE_eventHandler.c ****                 cyBle_deviceAddress.bdAddr[1] = CYBLE_SFLASH_DIE_Y_REG;
 704              		.loc 1 1184 0
 705 0132 804B     		ldr	r3, .L74+16
 706 0134 1A78     		ldrb	r2, [r3]
 707 0136 7E4B     		ldr	r3, .L74+12
 708 0138 5A70     		strb	r2, [r3, #1]
ARM GAS  C:\Users\Evan\AppData\Local\Temp\ccmgTxtA.s 			page 40


1185:.\Generated_Source\PSoC4/BLE_eventHandler.c ****                 cyBle_deviceAddress.bdAddr[2] = CYBLE_SFLASH_DIE_WAFER_REG;
 709              		.loc 1 1185 0
 710 013a 7F4B     		ldr	r3, .L74+20
 711 013c 1A78     		ldrb	r2, [r3]
 712 013e 7C4B     		ldr	r3, .L74+12
 713 0140 9A70     		strb	r2, [r3, #2]
1187:.\Generated_Source\PSoC4/BLE_eventHandler.c ****                 (void) CyBle_SetDeviceAddress(&cyBle_deviceAddress);
 714              		.loc 1 1187 0
 715 0142 7B4B     		ldr	r3, .L74+12
 716 0144 181C     		mov	r0, r3
 717 0146 FFF7FEFF 		bl	CyBle_SetDeviceAddress
1189:.\Generated_Source\PSoC4/BLE_eventHandler.c ****                     CyBle_ChangeAdDeviceAddress(&cyBle_deviceAddress, 0u);
 718              		.loc 1 1189 0
 719 014a 794B     		ldr	r3, .L74+12
 720 014c 181C     		mov	r0, r3
 721 014e 0021     		mov	r1, #0
 722 0150 FFF7FEFF 		bl	CyBle_ChangeAdDeviceAddress
1190:.\Generated_Source\PSoC4/BLE_eventHandler.c ****                     CyBle_ChangeAdDeviceAddress(&cyBle_deviceAddress, 1u);
 723              		.loc 1 1190 0
 724 0154 764B     		ldr	r3, .L74+12
 725 0156 181C     		mov	r0, r3
 726 0158 0121     		mov	r1, #1
 727 015a FFF7FEFF 		bl	CyBle_ChangeAdDeviceAddress
 728              	.L62:
1194:.\Generated_Source\PSoC4/BLE_eventHandler.c ****             (void) CyBle_GapSetIoCap(CYBLE_IO_CAPABILITY);    
 729              		.loc 1 1194 0
 730 015e 0020     		mov	r0, #0
 731 0160 FFF7FEFF 		bl	CyBle_GapSetIoCap
1196:.\Generated_Source\PSoC4/BLE_eventHandler.c ****             CyBle_SetState(CYBLE_STATE_DISCONNECTED);
 732              		.loc 1 1196 0
 733 0164 754B     		ldr	r3, .L74+24
 734 0166 0422     		mov	r2, #4
 735 0168 1A70     		strb	r2, [r3]
1197:.\Generated_Source\PSoC4/BLE_eventHandler.c ****             break;
 736              		.loc 1 1197 0
 737 016a FAE0     		b	.L63
 738              	.L36:
1199:.\Generated_Source\PSoC4/BLE_eventHandler.c ****             CyBle_TimeOutEventHandler((CYBLE_TO_REASON_CODE_T *)eventParam);
 739              		.loc 1 1199 0
 740 016c 3B68     		ldr	r3, [r7]
 741 016e 181C     		mov	r0, r3
 742 0170 FFF7FEFF 		bl	CyBle_TimeOutEventHandler
1200:.\Generated_Source\PSoC4/BLE_eventHandler.c ****             break;
 743              		.loc 1 1200 0
 744 0174 F5E0     		b	.L63
 745              	.L39:
1202:.\Generated_Source\PSoC4/BLE_eventHandler.c ****             cyBle_busyStatus = *(uint8 *)eventParam;
 746              		.loc 1 1202 0
 747 0176 3B68     		ldr	r3, [r7]
 748 0178 1A78     		ldrb	r2, [r3]
 749 017a 714B     		ldr	r3, .L74+28
 750 017c 1A70     		strb	r2, [r3]
1203:.\Generated_Source\PSoC4/BLE_eventHandler.c ****             break;
 751              		.loc 1 1203 0
 752 017e F0E0     		b	.L63
 753              	.L34:
1210:.\Generated_Source\PSoC4/BLE_eventHandler.c ****             if(0u == (cyBle_eventHandlerFlag & CYBLE_DISABLE_AUTOMATIC_AUTH))
ARM GAS  C:\Users\Evan\AppData\Local\Temp\ccmgTxtA.s 			page 41


 754              		.loc 1 1210 0
 755 0180 684B     		ldr	r3, .L74
 756 0182 1B78     		ldrb	r3, [r3]
 757 0184 DBB2     		uxtb	r3, r3
 758 0186 1A1C     		mov	r2, r3
 759 0188 2023     		mov	r3, #32
 760 018a 1340     		and	r3, r2
 761 018c 0ED1     		bne	.L64
1217:.\Generated_Source\PSoC4/BLE_eventHandler.c ****                 if(cyBle_authInfo.security == (CYBLE_GAP_SEC_MODE_1 | CYBLE_GAP_SEC_LEVEL_1))
 762              		.loc 1 1217 0
 763 018e 6D4B     		ldr	r3, .L74+32
 764 0190 1B78     		ldrb	r3, [r3]
 765 0192 102B     		cmp	r3, #16
 766 0194 02D1     		bne	.L65
1219:.\Generated_Source\PSoC4/BLE_eventHandler.c ****                     cyBle_authInfo.authErr = CYBLE_GAP_AUTH_ERROR_PAIRING_NOT_SUPPORTED;
 767              		.loc 1 1219 0
 768 0196 6B4B     		ldr	r3, .L74+32
 769 0198 0522     		mov	r2, #5
 770 019a DA70     		strb	r2, [r3, #3]
 771              	.L65:
1222:.\Generated_Source\PSoC4/BLE_eventHandler.c ****                 (void)CyBle_GappAuthReqReply(cyBle_connHandle.bdHandle, &cyBle_authInfo);
 772              		.loc 1 1222 0
 773 019c 6A4B     		ldr	r3, .L74+36
 774 019e 1A78     		ldrb	r2, [r3]
 775 01a0 684B     		ldr	r3, .L74+32
 776 01a2 101C     		mov	r0, r2
 777 01a4 191C     		mov	r1, r3
 778 01a6 FFF7FEFF 		bl	CyBle_GappAuthReqReply
1229:.\Generated_Source\PSoC4/BLE_eventHandler.c ****             break;
 779              		.loc 1 1229 0
 780 01aa DAE0     		b	.L63
 781              	.L64:
 782 01ac D9E0     		b	.L63
 783              	.L45:
1232:.\Generated_Source\PSoC4/BLE_eventHandler.c ****             CyBle_GapConnUpdateCompleteEventHandler((const CYBLE_GAP_CONN_PARAM_UPDATED_IN_CONTROLL
 784              		.loc 1 1232 0
 785 01ae 3B68     		ldr	r3, [r7]
 786 01b0 181C     		mov	r0, r3
 787 01b2 FFF7FEFF 		bl	CyBle_GapConnUpdateCompleteEventHandler
1233:.\Generated_Source\PSoC4/BLE_eventHandler.c ****             break;
 788              		.loc 1 1233 0
 789 01b6 D4E0     		b	.L63
 790              	.L44:
1236:.\Generated_Source\PSoC4/BLE_eventHandler.c ****             CyBle_GapConnUpdateCompleteEventHandler((const CYBLE_GAP_CONN_PARAM_UPDATED_IN_CONTROLL
 791              		.loc 1 1236 0
 792 01b8 3B68     		ldr	r3, [r7]
 793 01ba 181C     		mov	r0, r3
 794 01bc FFF7FEFF 		bl	CyBle_GapConnUpdateCompleteEventHandler
1243:.\Generated_Source\PSoC4/BLE_eventHandler.c ****             CyBle_SetState(CYBLE_STATE_CONNECTED);
 795              		.loc 1 1243 0
 796 01c0 5E4B     		ldr	r3, .L74+24
 797 01c2 0222     		mov	r2, #2
 798 01c4 1A70     		strb	r2, [r3]
1244:.\Generated_Source\PSoC4/BLE_eventHandler.c ****             break;
 799              		.loc 1 1244 0
 800 01c6 CCE0     		b	.L63
 801              	.L41:
ARM GAS  C:\Users\Evan\AppData\Local\Temp\ccmgTxtA.s 			page 42


1247:.\Generated_Source\PSoC4/BLE_eventHandler.c ****             CyBle_SetState(CYBLE_STATE_DISCONNECTED);
 802              		.loc 1 1247 0
 803 01c8 5C4B     		ldr	r3, .L74+24
 804 01ca 0422     		mov	r2, #4
 805 01cc 1A70     		strb	r2, [r3]
1248:.\Generated_Source\PSoC4/BLE_eventHandler.c ****             break;
 806              		.loc 1 1248 0
 807 01ce C8E0     		b	.L63
 808              	.L43:
1258:.\Generated_Source\PSoC4/BLE_eventHandler.c ****             if((CYBLE_STATE_CONNECTED != CyBle_GetState()) && ((cyBle_eventHandlerFlag & CYBLE_CALL
 809              		.loc 1 1258 0
 810 01d0 5A4B     		ldr	r3, .L74+24
 811 01d2 1B78     		ldrb	r3, [r3]
 812 01d4 022B     		cmp	r3, #2
 813 01d6 34D0     		beq	.L66
1258:.\Generated_Source\PSoC4/BLE_eventHandler.c ****             if((CYBLE_STATE_CONNECTED != CyBle_GetState()) && ((cyBle_eventHandlerFlag & CYBLE_CALL
 814              		.loc 1 1258 0 is_stmt 0 discriminator 1
 815 01d8 524B     		ldr	r3, .L74
 816 01da 1B78     		ldrb	r3, [r3]
 817 01dc DBB2     		uxtb	r3, r3
 818 01de 1A1C     		mov	r2, r3
 819 01e0 0123     		mov	r3, #1
 820 01e2 1340     		and	r3, r2
 821 01e4 2DD0     		beq	.L66
1261:.\Generated_Source\PSoC4/BLE_eventHandler.c ****                 if(0u != (cyBle_eventHandlerFlag & CYBLE_START_FLAG))
 822              		.loc 1 1261 0 is_stmt 1
 823 01e6 4F4B     		ldr	r3, .L74
 824 01e8 1B78     		ldrb	r3, [r3]
 825 01ea DBB2     		uxtb	r3, r3
 826 01ec 1A1C     		mov	r2, r3
 827 01ee 0423     		mov	r3, #4
 828 01f0 1340     		and	r3, r2
 829 01f2 0BD0     		beq	.L67
1263:.\Generated_Source\PSoC4/BLE_eventHandler.c ****                     CyBle_SetState(CYBLE_STATE_ADVERTISING);
 830              		.loc 1 1263 0
 831 01f4 514B     		ldr	r3, .L74+24
 832 01f6 0322     		mov	r2, #3
 833 01f8 1A70     		strb	r2, [r3]
1264:.\Generated_Source\PSoC4/BLE_eventHandler.c ****                     cyBle_eventHandlerFlag &= (uint8)~CYBLE_START_FLAG;
 834              		.loc 1 1264 0
 835 01fa 4A4B     		ldr	r3, .L74
 836 01fc 1B78     		ldrb	r3, [r3]
 837 01fe DBB2     		uxtb	r3, r3
 838 0200 0422     		mov	r2, #4
 839 0202 9343     		bic	r3, r2
 840 0204 DAB2     		uxtb	r2, r3
 841 0206 474B     		ldr	r3, .L74
 842 0208 1A70     		strb	r2, [r3]
 843 020a 1AE0     		b	.L66
 844              	.L67:
1267:.\Generated_Source\PSoC4/BLE_eventHandler.c ****                 else if(0u != (cyBle_eventHandlerFlag & CYBLE_STOP_FLAG))
 845              		.loc 1 1267 0
 846 020c 454B     		ldr	r3, .L74
 847 020e 1B78     		ldrb	r3, [r3]
 848 0210 DBB2     		uxtb	r3, r3
 849 0212 1A1C     		mov	r2, r3
 850 0214 0823     		mov	r3, #8
ARM GAS  C:\Users\Evan\AppData\Local\Temp\ccmgTxtA.s 			page 43


 851 0216 1340     		and	r3, r2
 852 0218 0BD0     		beq	.L68
1269:.\Generated_Source\PSoC4/BLE_eventHandler.c ****                     CyBle_SetState(CYBLE_STATE_DISCONNECTED);  
 853              		.loc 1 1269 0
 854 021a 484B     		ldr	r3, .L74+24
 855 021c 0422     		mov	r2, #4
 856 021e 1A70     		strb	r2, [r3]
1270:.\Generated_Source\PSoC4/BLE_eventHandler.c ****                     cyBle_eventHandlerFlag &= (uint8)~CYBLE_STOP_FLAG;
 857              		.loc 1 1270 0
 858 0220 404B     		ldr	r3, .L74
 859 0222 1B78     		ldrb	r3, [r3]
 860 0224 DBB2     		uxtb	r3, r3
 861 0226 0822     		mov	r2, #8
 862 0228 9343     		bic	r3, r2
 863 022a DAB2     		uxtb	r2, r3
 864 022c 3D4B     		ldr	r3, .L74
 865 022e 1A70     		strb	r2, [r3]
 866 0230 07E0     		b	.L66
 867              	.L68:
1274:.\Generated_Source\PSoC4/BLE_eventHandler.c ****                     if(CYBLE_STATE_ADVERTISING == CyBle_GetState())
 868              		.loc 1 1274 0
 869 0232 424B     		ldr	r3, .L74+24
 870 0234 1B78     		ldrb	r3, [r3]
 871 0236 032B     		cmp	r3, #3
 872 0238 03D1     		bne	.L66
1276:.\Generated_Source\PSoC4/BLE_eventHandler.c ****                         CyBle_SetState(CYBLE_STATE_DISCONNECTED);
 873              		.loc 1 1276 0
 874 023a 404B     		ldr	r3, .L74+24
 875 023c 0422     		mov	r2, #4
 876 023e 1A70     		strb	r2, [r3]
1290:.\Generated_Source\PSoC4/BLE_eventHandler.c ****             break;
 877              		.loc 1 1290 0
 878 0240 8FE0     		b	.L63
 879              	.L66:
 880 0242 8EE0     		b	.L63
 881              	.L59:
1338:.\Generated_Source\PSoC4/BLE_eventHandler.c ****             CyBle_L2Cap_ConnParamUpdateRspEventHandler(*(uint16 *)eventParam);
 882              		.loc 1 1338 0
 883 0244 3B68     		ldr	r3, [r7]
 884 0246 1B88     		ldrh	r3, [r3]
 885 0248 181C     		mov	r0, r3
 886 024a FFF7FEFF 		bl	CyBle_L2Cap_ConnParamUpdateRspEventHandler
1339:.\Generated_Source\PSoC4/BLE_eventHandler.c ****             break;
 887              		.loc 1 1339 0
 888 024e 88E0     		b	.L63
 889              	.L32:
1345:.\Generated_Source\PSoC4/BLE_eventHandler.c ****             cyBle_connHandle = *(CYBLE_CONN_HANDLE_T *)eventParam;
 890              		.loc 1 1345 0
 891 0250 3D4A     		ldr	r2, .L74+36
 892 0252 3B68     		ldr	r3, [r7]
 893 0254 111C     		mov	r1, r2
 894 0256 1A1C     		mov	r2, r3
 895 0258 0223     		mov	r3, #2
 896 025a 081C     		mov	r0, r1
 897 025c 111C     		mov	r1, r2
 898 025e 1A1C     		mov	r2, r3
 899 0260 FFF7FEFF 		bl	memcpy
ARM GAS  C:\Users\Evan\AppData\Local\Temp\ccmgTxtA.s 			page 44


1354:.\Generated_Source\PSoC4/BLE_eventHandler.c ****             CyBle_SetClientState(CYBLE_CLIENT_STATE_CONNECTED);
 900              		.loc 1 1354 0
 901 0264 394B     		ldr	r3, .L74+40
 902 0266 0022     		mov	r2, #0
 903 0268 1A70     		strb	r2, [r3]
1357:.\Generated_Source\PSoC4/BLE_eventHandler.c ****             CyBle_GattConnectReqHandler();
 904              		.loc 1 1357 0
 905 026a FFF7FEFF 		bl	CyBle_GattConnectReqHandler
1358:.\Generated_Source\PSoC4/BLE_eventHandler.c ****             break;
 906              		.loc 1 1358 0
 907 026e 78E0     		b	.L63
 908              	.L51:
1361:.\Generated_Source\PSoC4/BLE_eventHandler.c ****             CyBle_GattDisconnectEventHandler();
 909              		.loc 1 1361 0
 910 0270 FFF7FEFF 		bl	CyBle_GattDisconnectEventHandler
1362:.\Generated_Source\PSoC4/BLE_eventHandler.c ****             break;
 911              		.loc 1 1362 0
 912 0274 75E0     		b	.L63
 913              	.L52:
 914              	.LBB3:
1368:.\Generated_Source\PSoC4/BLE_eventHandler.c ****                 if(CYBLE_GATT_MTU > ((CYBLE_GATT_XCHG_MTU_PARAM_T *)eventParam)->mtu)
 915              		.loc 1 1368 0
 916 0276 3B68     		ldr	r3, [r7]
 917 0278 5B88     		ldrh	r3, [r3, #2]
 918 027a 312B     		cmp	r3, #49
 919 027c 05D8     		bhi	.L69
1370:.\Generated_Source\PSoC4/BLE_eventHandler.c ****                     cyBle_mtuSize = ((CYBLE_GATT_XCHG_MTU_PARAM_T *)eventParam)->mtu;
 920              		.loc 1 1370 0
 921 027e 3B1C     		mov	r3, r7
 922 0280 0E33     		add	r3, r3, #14
 923 0282 3A68     		ldr	r2, [r7]
 924 0284 5288     		ldrh	r2, [r2, #2]
 925 0286 1A80     		strh	r2, [r3]
 926 0288 03E0     		b	.L70
 927              	.L69:
1374:.\Generated_Source\PSoC4/BLE_eventHandler.c ****                     cyBle_mtuSize = CYBLE_GATT_MTU;
 928              		.loc 1 1374 0
 929 028a 3B1C     		mov	r3, r7
 930 028c 0E33     		add	r3, r3, #14
 931 028e 3222     		mov	r2, #50
 932 0290 1A80     		strh	r2, [r3]
 933              	.L70:
1376:.\Generated_Source\PSoC4/BLE_eventHandler.c ****                 (void)CyBle_GattsExchangeMtuRsp(((CYBLE_GATT_XCHG_MTU_PARAM_T *)eventParam)->connHa
 934              		.loc 1 1376 0
 935 0292 3B68     		ldr	r3, [r7]
 936 0294 3A1C     		mov	r2, r7
 937 0296 0E32     		add	r2, r2, #14
 938 0298 1288     		ldrh	r2, [r2]
 939 029a 1988     		ldrh	r1, [r3]
 940 029c 0023     		mov	r3, #0
 941 029e 0904     		lsl	r1, r1, #16
 942 02a0 090C     		lsr	r1, r1, #16
 943 02a2 1B0C     		lsr	r3, r3, #16
 944 02a4 1B04     		lsl	r3, r3, #16
 945 02a6 0B43     		orr	r3, r1
 946 02a8 181C     		mov	r0, r3
 947 02aa 111C     		mov	r1, r2
ARM GAS  C:\Users\Evan\AppData\Local\Temp\ccmgTxtA.s 			page 45


 948 02ac FFF7FEFF 		bl	CyBle_GattsExchangeMtuRsp
 949              	.LBE3:
1378:.\Generated_Source\PSoC4/BLE_eventHandler.c ****             break;
 950              		.loc 1 1378 0
 951 02b0 57E0     		b	.L63
 952              	.L49:
1436:.\Generated_Source\PSoC4/BLE_eventHandler.c ****             CyBle_ReadByGroupEventHandler((CYBLE_GATTC_READ_BY_GRP_RSP_PARAM_T *)eventParam);
 953              		.loc 1 1436 0
 954 02b2 3B68     		ldr	r3, [r7]
 955 02b4 181C     		mov	r0, r3
 956 02b6 FFF7FEFF 		bl	CyBle_ReadByGroupEventHandler
1437:.\Generated_Source\PSoC4/BLE_eventHandler.c ****             break;
 957              		.loc 1 1437 0
 958 02ba 52E0     		b	.L63
 959              	.L53:
1440:.\Generated_Source\PSoC4/BLE_eventHandler.c ****             CyBle_ReadByTypeEventHandler((CYBLE_GATTC_READ_BY_TYPE_RSP_PARAM_T *)eventParam);
 960              		.loc 1 1440 0
 961 02bc 3B68     		ldr	r3, [r7]
 962 02be 181C     		mov	r0, r3
 963 02c0 FFF7FEFF 		bl	CyBle_ReadByTypeEventHandler
1441:.\Generated_Source\PSoC4/BLE_eventHandler.c ****             break;
 964              		.loc 1 1441 0
 965 02c4 4DE0     		b	.L63
 966              	.L54:
1444:.\Generated_Source\PSoC4/BLE_eventHandler.c ****             CyBle_FindInfoEventHandler((CYBLE_GATTC_FIND_INFO_RSP_PARAM_T *)eventParam);
 967              		.loc 1 1444 0
 968 02c6 3B68     		ldr	r3, [r7]
 969 02c8 181C     		mov	r0, r3
 970 02ca FFF7FEFF 		bl	CyBle_FindInfoEventHandler
1445:.\Generated_Source\PSoC4/BLE_eventHandler.c ****             break;
 971              		.loc 1 1445 0
 972 02ce 48E0     		b	.L63
 973              	.L46:
1448:.\Generated_Source\PSoC4/BLE_eventHandler.c ****             CyBle_ErrorResponseEventHandler((CYBLE_GATTC_ERR_RSP_PARAM_T *)eventParam);
 974              		.loc 1 1448 0
 975 02d0 3B68     		ldr	r3, [r7]
 976 02d2 181C     		mov	r0, r3
 977 02d4 FFF7FEFF 		bl	CyBle_ErrorResponseEventHandler
1449:.\Generated_Source\PSoC4/BLE_eventHandler.c ****             break;
 978              		.loc 1 1449 0
 979 02d8 43E0     		b	.L63
 980              	.L58:
1452:.\Generated_Source\PSoC4/BLE_eventHandler.c ****             CyBle_NotificationEventHandler((CYBLE_GATTC_HANDLE_VALUE_NTF_PARAM_T *)eventParam);
 981              		.loc 1 1452 0
 982 02da 3B68     		ldr	r3, [r7]
 983 02dc 181C     		mov	r0, r3
 984 02de FFF7FEFF 		bl	CyBle_NotificationEventHandler
1453:.\Generated_Source\PSoC4/BLE_eventHandler.c ****             break;
 985              		.loc 1 1453 0
 986 02e2 3EE0     		b	.L63
 987              	.L55:
1456:.\Generated_Source\PSoC4/BLE_eventHandler.c ****             CyBle_GattcIndicationEventHandler((CYBLE_GATTC_HANDLE_VALUE_IND_PARAM_T *)eventParam);
 988              		.loc 1 1456 0
 989 02e4 3B68     		ldr	r3, [r7]
 990 02e6 181C     		mov	r0, r3
 991 02e8 FFF7FEFF 		bl	CyBle_GattcIndicationEventHandler
1457:.\Generated_Source\PSoC4/BLE_eventHandler.c ****             CyBle_IndicationEventHandler((CYBLE_GATTC_HANDLE_VALUE_IND_PARAM_T *)eventParam);
ARM GAS  C:\Users\Evan\AppData\Local\Temp\ccmgTxtA.s 			page 46


 992              		.loc 1 1457 0
 993 02ec 3B68     		ldr	r3, [r7]
 994 02ee 181C     		mov	r0, r3
 995 02f0 FFF7FEFF 		bl	CyBle_IndicationEventHandler
1460:.\Generated_Source\PSoC4/BLE_eventHandler.c ****             if((cyBle_eventHandlerFlag & CYBLE_CALLBACK) == 0u)
 996              		.loc 1 1460 0
 997 02f4 0B4B     		ldr	r3, .L74
 998 02f6 1B78     		ldrb	r3, [r3]
 999 02f8 DBB2     		uxtb	r3, r3
 1000 02fa 1A1C     		mov	r2, r3
 1001 02fc 0123     		mov	r3, #1
 1002 02fe 1340     		and	r3, r2
 1003 0300 04D1     		bne	.L71
1462:.\Generated_Source\PSoC4/BLE_eventHandler.c ****                 (void)CyBle_GattcConfirmation(((CYBLE_GATTC_HANDLE_VALUE_IND_PARAM_T *)eventParam)-
 1004              		.loc 1 1462 0
 1005 0302 3B68     		ldr	r3, [r7]
 1006 0304 1868     		ldr	r0, [r3]
 1007 0306 FFF7FEFF 		bl	CyBle_GattcConfirmation
1464:.\Generated_Source\PSoC4/BLE_eventHandler.c ****             break;
 1008              		.loc 1 1464 0
 1009 030a 2AE0     		b	.L63
 1010              	.L71:
 1011 030c 29E0     		b	.L63
 1012              	.L47:
1467:.\Generated_Source\PSoC4/BLE_eventHandler.c ****             CyBle_ReadResponseEventHandler((CYBLE_GATTC_READ_RSP_PARAM_T *)eventParam);
 1013              		.loc 1 1467 0
 1014 030e 3B68     		ldr	r3, [r7]
 1015 0310 181C     		mov	r0, r3
 1016 0312 FFF7FEFF 		bl	CyBle_ReadResponseEventHandler
1468:.\Generated_Source\PSoC4/BLE_eventHandler.c ****             break;
 1017              		.loc 1 1468 0
 1018 0316 24E0     		b	.L63
 1019              	.L57:
1471:.\Generated_Source\PSoC4/BLE_eventHandler.c ****             CyBle_GattcWriteResponseEventHandler((CYBLE_CONN_HANDLE_T *)eventParam);
 1020              		.loc 1 1471 0
 1021 0318 3B68     		ldr	r3, [r7]
 1022 031a 181C     		mov	r0, r3
 1023 031c FFF7FEFF 		bl	CyBle_GattcWriteResponseEventHandler
1472:.\Generated_Source\PSoC4/BLE_eventHandler.c ****             break;
 1024              		.loc 1 1472 0
 1025 0320 1FE0     		b	.L63
 1026              	.L75:
 1027 0322 C046     		.align	2
 1028              	.L74:
 1029 0324 00000000 		.word	cyBle_eventHandlerFlag
 1030 0328 00000000 		.word	cyBle_sflashDeviceAddress
 1031 032c 7CF1FF0F 		.word	268431740
 1032 0330 00000000 		.word	cyBle_deviceAddress
 1033 0334 7DF1FF0F 		.word	268431741
 1034 0338 7BF1FF0F 		.word	268431739
 1035 033c 00000000 		.word	cyBle_state
 1036 0340 00000000 		.word	cyBle_busyStatus
 1037 0344 00000000 		.word	cyBle_authInfo
 1038 0348 00000000 		.word	cyBle_connHandle
 1039 034c 00000000 		.word	cyBle_clientState
 1040              	.L60:
1479:.\Generated_Source\PSoC4/BLE_eventHandler.c ****             cyBle_pendingFlashWrite |= CYBLE_PENDING_STACK_FLASH_WRITE_BIT;
ARM GAS  C:\Users\Evan\AppData\Local\Temp\ccmgTxtA.s 			page 47


 1041              		.loc 1 1479 0
 1042 0350 114B     		ldr	r3, .L76
 1043 0352 1B78     		ldrb	r3, [r3]
 1044 0354 0122     		mov	r2, #1
 1045 0356 1343     		orr	r3, r2
 1046 0358 DAB2     		uxtb	r2, r3
 1047 035a 0F4B     		ldr	r3, .L76
 1048 035c 1A70     		strb	r2, [r3]
1480:.\Generated_Source\PSoC4/BLE_eventHandler.c ****             break;
 1049              		.loc 1 1480 0
 1050 035e 00E0     		b	.L63
 1051              	.L73:
1386:.\Generated_Source\PSoC4/BLE_eventHandler.c ****             break;
 1052              		.loc 1 1386 0
 1053 0360 C046     		mov	r8, r8
 1054              	.L63:
1486:.\Generated_Source\PSoC4/BLE_eventHandler.c ****     }
1487:.\Generated_Source\PSoC4/BLE_eventHandler.c **** 
1488:.\Generated_Source\PSoC4/BLE_eventHandler.c ****     if(0u != (cyBle_eventHandlerFlag & (CYBLE_CALLBACK | CYBLE_ENABLE_ALL_EVENTS))) 
 1055              		.loc 1 1488 0
 1056 0362 0E4B     		ldr	r3, .L76+4
 1057 0364 1B78     		ldrb	r3, [r3]
 1058 0366 DBB2     		uxtb	r3, r3
 1059 0368 1A1C     		mov	r2, r3
 1060 036a 1123     		mov	r3, #17
 1061 036c 1340     		and	r3, r2
 1062 036e 0FD0     		beq	.L30
1489:.\Generated_Source\PSoC4/BLE_eventHandler.c ****     {
1490:.\Generated_Source\PSoC4/BLE_eventHandler.c ****         cyBle_eventHandlerFlag &= (uint8)~CYBLE_CALLBACK;
 1063              		.loc 1 1490 0
 1064 0370 0A4B     		ldr	r3, .L76+4
 1065 0372 1B78     		ldrb	r3, [r3]
 1066 0374 DBB2     		uxtb	r3, r3
 1067 0376 0122     		mov	r2, #1
 1068 0378 9343     		bic	r3, r2
 1069 037a DAB2     		uxtb	r2, r3
 1070 037c 074B     		ldr	r3, .L76+4
 1071 037e 1A70     		strb	r2, [r3]
1491:.\Generated_Source\PSoC4/BLE_eventHandler.c ****         CyBle_ApplCallback((uint32)eventCode, eventParam);
 1072              		.loc 1 1491 0
 1073 0380 074B     		ldr	r3, .L76+8
 1074 0382 1B68     		ldr	r3, [r3]
 1075 0384 FA1D     		add	r2, r7, #7
 1076 0386 1178     		ldrb	r1, [r2]
 1077 0388 3A68     		ldr	r2, [r7]
 1078 038a 081C     		mov	r0, r1
 1079 038c 111C     		mov	r1, r2
 1080 038e 9847     		blx	r3
 1081              	.L30:
1492:.\Generated_Source\PSoC4/BLE_eventHandler.c ****     }
1493:.\Generated_Source\PSoC4/BLE_eventHandler.c **** 
1494:.\Generated_Source\PSoC4/BLE_eventHandler.c **** }
 1082              		.loc 1 1494 0
 1083 0390 BD46     		mov	sp, r7
 1084 0392 04B0     		add	sp, sp, #16
 1085              		@ sp needed
 1086 0394 80BD     		pop	{r7, pc}
ARM GAS  C:\Users\Evan\AppData\Local\Temp\ccmgTxtA.s 			page 48


 1087              	.L77:
 1088 0396 C046     		.align	2
 1089              	.L76:
 1090 0398 00000000 		.word	cyBle_pendingFlashWrite
 1091 039c 00000000 		.word	cyBle_eventHandlerFlag
 1092 03a0 00000000 		.word	CyBle_ApplCallback
 1093              		.cfi_endproc
 1094              	.LFE12:
 1095              		.size	CyBle_EventHandler, .-CyBle_EventHandler
 1096              		.section	.text.CyBle_ReadByGroupEventHandler,"ax",%progbits
 1097              		.align	2
 1098              		.global	CyBle_ReadByGroupEventHandler
 1099              		.code	16
 1100              		.thumb_func
 1101              		.type	CyBle_ReadByGroupEventHandler, %function
 1102              	CyBle_ReadByGroupEventHandler:
 1103              	.LFB13:
1495:.\Generated_Source\PSoC4/BLE_eventHandler.c **** 
1496:.\Generated_Source\PSoC4/BLE_eventHandler.c **** 
1497:.\Generated_Source\PSoC4/BLE_eventHandler.c **** #if (CYBLE_GATT_ROLE_CLIENT)
1498:.\Generated_Source\PSoC4/BLE_eventHandler.c **** 
1499:.\Generated_Source\PSoC4/BLE_eventHandler.c **** 
1500:.\Generated_Source\PSoC4/BLE_eventHandler.c **** /****************************************************************************** 
1501:.\Generated_Source\PSoC4/BLE_eventHandler.c **** ##Function Name: CyBle_ReadByGroupEventHandler
1502:.\Generated_Source\PSoC4/BLE_eventHandler.c **** *******************************************************************************
1503:.\Generated_Source\PSoC4/BLE_eventHandler.c **** 
1504:.\Generated_Source\PSoC4/BLE_eventHandler.c **** Summary:
1505:.\Generated_Source\PSoC4/BLE_eventHandler.c ****  Handles the Read By Group Response Event during an automatic server discovery
1506:.\Generated_Source\PSoC4/BLE_eventHandler.c ****  process.
1507:.\Generated_Source\PSoC4/BLE_eventHandler.c **** 
1508:.\Generated_Source\PSoC4/BLE_eventHandler.c **** Parameters:
1509:.\Generated_Source\PSoC4/BLE_eventHandler.c ****  CYBLE_GATT_READ_BY_GRP_RSP_PARAM_T *eventParam:  the event parameters for a Read By Group Response
1510:.\Generated_Source\PSoC4/BLE_eventHandler.c **** 
1511:.\Generated_Source\PSoC4/BLE_eventHandler.c **** Return:
1512:.\Generated_Source\PSoC4/BLE_eventHandler.c ****  None
1513:.\Generated_Source\PSoC4/BLE_eventHandler.c **** 
1514:.\Generated_Source\PSoC4/BLE_eventHandler.c **** ******************************************************************************/
1515:.\Generated_Source\PSoC4/BLE_eventHandler.c **** void CyBle_ReadByGroupEventHandler(CYBLE_GATTC_READ_BY_GRP_RSP_PARAM_T *eventParam)
1516:.\Generated_Source\PSoC4/BLE_eventHandler.c **** {
 1104              		.loc 1 1516 0
 1105              		.cfi_startproc
 1106 0000 80B5     		push	{r7, lr}
 1107              		.cfi_def_cfa_offset 8
 1108              		.cfi_offset 7, -8
 1109              		.cfi_offset 14, -4
 1110 0002 86B0     		sub	sp, sp, #24
 1111              		.cfi_def_cfa_offset 32
 1112 0004 00AF     		add	r7, sp, #0
 1113              		.cfi_def_cfa_register 7
 1114 0006 7860     		str	r0, [r7, #4]
1517:.\Generated_Source\PSoC4/BLE_eventHandler.c ****     uint8 j;
1518:.\Generated_Source\PSoC4/BLE_eventHandler.c ****     uint16 dataLength;
1519:.\Generated_Source\PSoC4/BLE_eventHandler.c ****     uint16 attrLength;
1520:.\Generated_Source\PSoC4/BLE_eventHandler.c ****     uint16 i;
1521:.\Generated_Source\PSoC4/BLE_eventHandler.c ****     CYBLE_DISC_SRVC_INFO_T* discSrvcInfo = NULL;
 1115              		.loc 1 1521 0
 1116 0008 0023     		mov	r3, #0
ARM GAS  C:\Users\Evan\AppData\Local\Temp\ccmgTxtA.s 			page 49


 1117 000a 3B61     		str	r3, [r7, #16]
1522:.\Generated_Source\PSoC4/BLE_eventHandler.c ****     uint8 flag;
1523:.\Generated_Source\PSoC4/BLE_eventHandler.c ****     if((CYBLE_CLIENT_STATE_SRVC_DISCOVERING == CyBle_GetClientState()) &&
 1118              		.loc 1 1523 0
 1119 000c 754B     		ldr	r3, .L91
 1120 000e 1B78     		ldrb	r3, [r3]
 1121 0010 012B     		cmp	r3, #1
 1122 0012 00D0     		beq	.LCB975
 1123 0014 E2E0     		b	.L78	@long jump
 1124              	.LCB975:
1524:.\Generated_Source\PSoC4/BLE_eventHandler.c ****         (0u != (cyBle_eventHandlerFlag & CYBLE_AUTO_DISCOVERY)))
 1125              		.loc 1 1524 0 discriminator 1
 1126 0016 744B     		ldr	r3, .L91+4
 1127 0018 1B78     		ldrb	r3, [r3]
 1128 001a DBB2     		uxtb	r3, r3
 1129 001c 1A1C     		mov	r2, r3
 1130 001e 0223     		mov	r3, #2
 1131 0020 1340     		and	r3, r2
1523:.\Generated_Source\PSoC4/BLE_eventHandler.c ****     if((CYBLE_CLIENT_STATE_SRVC_DISCOVERING == CyBle_GetClientState()) &&
 1132              		.loc 1 1523 0 discriminator 1
 1133 0022 00D1     		bne	.LCB983
 1134 0024 DAE0     		b	.L78	@long jump
 1135              	.LCB983:
1525:.\Generated_Source\PSoC4/BLE_eventHandler.c ****     {
1526:.\Generated_Source\PSoC4/BLE_eventHandler.c ****         dataLength = eventParam->attrData.length;
 1136              		.loc 1 1526 0
 1137 0026 3B1C     		mov	r3, r7
 1138 0028 0C33     		add	r3, r3, #12
 1139 002a 7A68     		ldr	r2, [r7, #4]
 1140 002c 1289     		ldrh	r2, [r2, #8]
 1141 002e 1A80     		strh	r2, [r3]
1527:.\Generated_Source\PSoC4/BLE_eventHandler.c **** 
1528:.\Generated_Source\PSoC4/BLE_eventHandler.c ****         if((dataLength == CYBLE_DISC_SRVC_INFO_LEN) || (dataLength == CYBLE_DISC_SRVC_INFO_128_LEN)
 1142              		.loc 1 1528 0
 1143 0030 3B1C     		mov	r3, r7
 1144 0032 0C33     		add	r3, r3, #12
 1145 0034 1B88     		ldrh	r3, [r3]
 1146 0036 062B     		cmp	r3, #6
 1147 0038 05D0     		beq	.L80
 1148              		.loc 1 1528 0 is_stmt 0 discriminator 1
 1149 003a 3B1C     		mov	r3, r7
 1150 003c 0C33     		add	r3, r3, #12
 1151 003e 1B88     		ldrh	r3, [r3]
 1152 0040 142B     		cmp	r3, #20
 1153 0042 00D0     		beq	.LCB998
 1154 0044 C3E0     		b	.L81	@long jump
 1155              	.LCB998:
 1156              	.L80:
1529:.\Generated_Source\PSoC4/BLE_eventHandler.c ****         {
1530:.\Generated_Source\PSoC4/BLE_eventHandler.c ****             attrLength = eventParam->attrData.attrLen;
 1157              		.loc 1 1530 0 is_stmt 1
 1158 0046 3B1C     		mov	r3, r7
 1159 0048 0A33     		add	r3, r3, #10
 1160 004a 7A68     		ldr	r2, [r7, #4]
 1161 004c 5289     		ldrh	r2, [r2, #10]
 1162 004e 1A80     		strh	r2, [r3]
1531:.\Generated_Source\PSoC4/BLE_eventHandler.c **** 
ARM GAS  C:\Users\Evan\AppData\Local\Temp\ccmgTxtA.s 			page 50


1532:.\Generated_Source\PSoC4/BLE_eventHandler.c ****             for(i = 0u; i < attrLength; i += dataLength)
 1163              		.loc 1 1532 0
 1164 0050 3B1C     		mov	r3, r7
 1165 0052 1433     		add	r3, r3, #20
 1166 0054 0022     		mov	r2, #0
 1167 0056 1A80     		strh	r2, [r3]
 1168 0058 85E0     		b	.L82
 1169              	.L89:
1533:.\Generated_Source\PSoC4/BLE_eventHandler.c ****             {
1534:.\Generated_Source\PSoC4/BLE_eventHandler.c ****                 discSrvcInfo = (CYBLE_DISC_SRVC_INFO_T*)(eventParam->attrData.attrValue + i);
 1170              		.loc 1 1534 0
 1171 005a 7B68     		ldr	r3, [r7, #4]
 1172 005c 5A68     		ldr	r2, [r3, #4]
 1173 005e 3B1C     		mov	r3, r7
 1174 0060 1433     		add	r3, r3, #20
 1175 0062 1B88     		ldrh	r3, [r3]
 1176 0064 D318     		add	r3, r2, r3
 1177 0066 3B61     		str	r3, [r7, #16]
1535:.\Generated_Source\PSoC4/BLE_eventHandler.c **** 
1536:.\Generated_Source\PSoC4/BLE_eventHandler.c ****                 if(dataLength == CYBLE_DISC_SRVC_INFO_LEN)
 1178              		.loc 1 1536 0
 1179 0068 3B1C     		mov	r3, r7
 1180 006a 0C33     		add	r3, r3, #12
 1181 006c 1B88     		ldrh	r3, [r3]
 1182 006e 062B     		cmp	r3, #6
 1183 0070 00D0     		beq	.LCB1024
 1184 0072 6EE0     		b	.L83	@long jump
 1185              	.LCB1024:
1537:.\Generated_Source\PSoC4/BLE_eventHandler.c ****                 {
1538:.\Generated_Source\PSoC4/BLE_eventHandler.c ****                     flag = 0u;
 1186              		.loc 1 1538 0
 1187 0074 3B1C     		mov	r3, r7
 1188 0076 0F33     		add	r3, r3, #15
 1189 0078 0022     		mov	r2, #0
 1190 007a 1A70     		strb	r2, [r3]
1539:.\Generated_Source\PSoC4/BLE_eventHandler.c **** 					for(j = 0u; (j < (uint8) CYBLE_SRVI_COUNT) && (flag == 0u); j++)
 1191              		.loc 1 1539 0
 1192 007c 3B1C     		mov	r3, r7
 1193 007e 1733     		add	r3, r3, #23
 1194 0080 0022     		mov	r2, #0
 1195 0082 1A70     		strb	r2, [r3]
 1196 0084 5BE0     		b	.L84
 1197              	.L88:
1540:.\Generated_Source\PSoC4/BLE_eventHandler.c ****                     {
1541:.\Generated_Source\PSoC4/BLE_eventHandler.c ****                         if(cyBle_serverInfo[j].uuid == discSrvcInfo->uuid)
 1198              		.loc 1 1541 0
 1199 0086 3B1C     		mov	r3, r7
 1200 0088 1733     		add	r3, r3, #23
 1201 008a 1A78     		ldrb	r2, [r3]
 1202 008c 5749     		ldr	r1, .L91+8
 1203 008e 131C     		mov	r3, r2
 1204 0090 5B00     		lsl	r3, r3, #1
 1205 0092 9B18     		add	r3, r3, r2
 1206 0094 5B00     		lsl	r3, r3, #1
 1207 0096 CB18     		add	r3, r1, r3
 1208 0098 9A88     		ldrh	r2, [r3, #4]
 1209 009a 3B69     		ldr	r3, [r7, #16]
ARM GAS  C:\Users\Evan\AppData\Local\Temp\ccmgTxtA.s 			page 51


 1210 009c 9B88     		ldrh	r3, [r3, #4]
 1211 009e 9A42     		cmp	r2, r3
 1212 00a0 46D1     		bne	.L85
1542:.\Generated_Source\PSoC4/BLE_eventHandler.c ****                         {
1543:.\Generated_Source\PSoC4/BLE_eventHandler.c ****                             if(cyBle_serverInfo[j].range.startHandle == CYBLE_GATT_INVALID_ATTR_HAN
 1213              		.loc 1 1543 0
 1214 00a2 3B1C     		mov	r3, r7
 1215 00a4 1733     		add	r3, r3, #23
 1216 00a6 1A78     		ldrb	r2, [r3]
 1217 00a8 5049     		ldr	r1, .L91+8
 1218 00aa 131C     		mov	r3, r2
 1219 00ac 5B00     		lsl	r3, r3, #1
 1220 00ae 9B18     		add	r3, r3, r2
 1221 00b0 5B00     		lsl	r3, r3, #1
 1222 00b2 5B5A     		ldrh	r3, [r3, r1]
 1223 00b4 002B     		cmp	r3, #0
 1224 00b6 1AD1     		bne	.L86
1544:.\Generated_Source\PSoC4/BLE_eventHandler.c ****                             {
1545:.\Generated_Source\PSoC4/BLE_eventHandler.c ****                                 cyBle_serverInfo[j].range = discSrvcInfo->range;
 1225              		.loc 1 1545 0
 1226 00b8 3B1C     		mov	r3, r7
 1227 00ba 1733     		add	r3, r3, #23
 1228 00bc 1A78     		ldrb	r2, [r3]
 1229 00be 4B49     		ldr	r1, .L91+8
 1230 00c0 131C     		mov	r3, r2
 1231 00c2 5B00     		lsl	r3, r3, #1
 1232 00c4 9B18     		add	r3, r3, r2
 1233 00c6 5B00     		lsl	r3, r3, #1
 1234 00c8 3A69     		ldr	r2, [r7, #16]
 1235 00ca C918     		add	r1, r1, r3
 1236 00cc 0423     		mov	r3, #4
 1237 00ce 081C     		mov	r0, r1
 1238 00d0 111C     		mov	r1, r2
 1239 00d2 1A1C     		mov	r2, r3
 1240 00d4 FFF7FEFF 		bl	memcpy
1546:.\Generated_Source\PSoC4/BLE_eventHandler.c ****                                 cyBle_disCount++;
 1241              		.loc 1 1546 0
 1242 00d8 454B     		ldr	r3, .L91+12
 1243 00da 1B78     		ldrb	r3, [r3]
 1244 00dc 0133     		add	r3, r3, #1
 1245 00de DAB2     		uxtb	r2, r3
 1246 00e0 434B     		ldr	r3, .L91+12
 1247 00e2 1A70     		strb	r2, [r3]
1547:.\Generated_Source\PSoC4/BLE_eventHandler.c ****                                 flag = 1u;
 1248              		.loc 1 1547 0
 1249 00e4 3B1C     		mov	r3, r7
 1250 00e6 0F33     		add	r3, r3, #15
 1251 00e8 0122     		mov	r2, #1
 1252 00ea 1A70     		strb	r2, [r3]
 1253 00ec 20E0     		b	.L85
 1254              	.L86:
1548:.\Generated_Source\PSoC4/BLE_eventHandler.c ****                             }
1549:.\Generated_Source\PSoC4/BLE_eventHandler.c ****                             else    /* Duplication of service */
1550:.\Generated_Source\PSoC4/BLE_eventHandler.c ****                             {
1551:.\Generated_Source\PSoC4/BLE_eventHandler.c ****                                 /* For multiple service support next service has the same uuid */
1552:.\Generated_Source\PSoC4/BLE_eventHandler.c ****                                 if((j >= (CYBLE_SRVI_COUNT - 1u)) || 
 1255              		.loc 1 1552 0
ARM GAS  C:\Users\Evan\AppData\Local\Temp\ccmgTxtA.s 			page 52


 1256 00ee 3B1C     		mov	r3, r7
 1257 00f0 1733     		add	r3, r3, #23
 1258 00f2 1B78     		ldrb	r3, [r3]
 1259 00f4 002B     		cmp	r3, #0
 1260 00f6 0ED1     		bne	.L87
1553:.\Generated_Source\PSoC4/BLE_eventHandler.c ****                                    (cyBle_serverInfo[j + 1u].uuid != discSrvcInfo->uuid))
 1261              		.loc 1 1553 0 discriminator 1
 1262 00f8 3B1C     		mov	r3, r7
 1263 00fa 1733     		add	r3, r3, #23
 1264 00fc 1B78     		ldrb	r3, [r3]
 1265 00fe 5A1C     		add	r2, r3, #1
 1266 0100 3A49     		ldr	r1, .L91+8
 1267 0102 131C     		mov	r3, r2
 1268 0104 5B00     		lsl	r3, r3, #1
 1269 0106 9B18     		add	r3, r3, r2
 1270 0108 5B00     		lsl	r3, r3, #1
 1271 010a CB18     		add	r3, r1, r3
 1272 010c 9A88     		ldrh	r2, [r3, #4]
 1273 010e 3B69     		ldr	r3, [r7, #16]
 1274 0110 9B88     		ldrh	r3, [r3, #4]
1552:.\Generated_Source\PSoC4/BLE_eventHandler.c ****                                 if((j >= (CYBLE_SRVI_COUNT - 1u)) || 
 1275              		.loc 1 1552 0 discriminator 1
 1276 0112 9A42     		cmp	r2, r3
 1277 0114 0CD0     		beq	.L85
 1278              	.L87:
1554:.\Generated_Source\PSoC4/BLE_eventHandler.c ****                                 {
1555:.\Generated_Source\PSoC4/BLE_eventHandler.c ****                                     CyBle_ApplCallback(CYBLE_EVT_GATTC_SRVC_DUPLICATION, &discSrvcI
 1279              		.loc 1 1555 0
 1280 0116 374B     		ldr	r3, .L91+16
 1281 0118 1B68     		ldr	r3, [r3]
 1282 011a 3A69     		ldr	r2, [r7, #16]
 1283 011c 0432     		add	r2, r2, #4
 1284 011e 0C21     		mov	r1, #12
 1285 0120 FF31     		add	r1, r1, #255
 1286 0122 081C     		mov	r0, r1
 1287 0124 111C     		mov	r1, r2
 1288 0126 9847     		blx	r3
1556:.\Generated_Source\PSoC4/BLE_eventHandler.c ****                                     flag = 1u;
 1289              		.loc 1 1556 0
 1290 0128 3B1C     		mov	r3, r7
 1291 012a 0F33     		add	r3, r3, #15
 1292 012c 0122     		mov	r2, #1
 1293 012e 1A70     		strb	r2, [r3]
 1294              	.L85:
1539:.\Generated_Source\PSoC4/BLE_eventHandler.c **** 					for(j = 0u; (j < (uint8) CYBLE_SRVI_COUNT) && (flag == 0u); j++)
 1295              		.loc 1 1539 0
 1296 0130 3B1C     		mov	r3, r7
 1297 0132 1733     		add	r3, r3, #23
 1298 0134 1A78     		ldrb	r2, [r3]
 1299 0136 3B1C     		mov	r3, r7
 1300 0138 1733     		add	r3, r3, #23
 1301 013a 0132     		add	r2, r2, #1
 1302 013c 1A70     		strb	r2, [r3]
 1303              	.L84:
1539:.\Generated_Source\PSoC4/BLE_eventHandler.c **** 					for(j = 0u; (j < (uint8) CYBLE_SRVI_COUNT) && (flag == 0u); j++)
 1304              		.loc 1 1539 0 is_stmt 0 discriminator 1
 1305 013e 3B1C     		mov	r3, r7
ARM GAS  C:\Users\Evan\AppData\Local\Temp\ccmgTxtA.s 			page 53


 1306 0140 1733     		add	r3, r3, #23
 1307 0142 1B78     		ldrb	r3, [r3]
 1308 0144 012B     		cmp	r3, #1
 1309 0146 04D8     		bhi	.L83
1539:.\Generated_Source\PSoC4/BLE_eventHandler.c **** 					for(j = 0u; (j < (uint8) CYBLE_SRVI_COUNT) && (flag == 0u); j++)
 1310              		.loc 1 1539 0 discriminator 2
 1311 0148 3B1C     		mov	r3, r7
 1312 014a 0F33     		add	r3, r3, #15
 1313 014c 1B78     		ldrb	r3, [r3]
 1314 014e 002B     		cmp	r3, #0
 1315 0150 99D0     		beq	.L88
 1316              	.L83:
1532:.\Generated_Source\PSoC4/BLE_eventHandler.c ****             for(i = 0u; i < attrLength; i += dataLength)
 1317              		.loc 1 1532 0 is_stmt 1
 1318 0152 3B1C     		mov	r3, r7
 1319 0154 1433     		add	r3, r3, #20
 1320 0156 391C     		mov	r1, r7
 1321 0158 1431     		add	r1, r1, #20
 1322 015a 3A1C     		mov	r2, r7
 1323 015c 0C32     		add	r2, r2, #12
 1324 015e 0988     		ldrh	r1, [r1]
 1325 0160 1288     		ldrh	r2, [r2]
 1326 0162 8A18     		add	r2, r1, r2
 1327 0164 1A80     		strh	r2, [r3]
 1328              	.L82:
1532:.\Generated_Source\PSoC4/BLE_eventHandler.c ****             for(i = 0u; i < attrLength; i += dataLength)
 1329              		.loc 1 1532 0 is_stmt 0 discriminator 1
 1330 0166 3A1C     		mov	r2, r7
 1331 0168 1432     		add	r2, r2, #20
 1332 016a 3B1C     		mov	r3, r7
 1333 016c 0A33     		add	r3, r3, #10
 1334 016e 1288     		ldrh	r2, [r2]
 1335 0170 1B88     		ldrh	r3, [r3]
 1336 0172 9A42     		cmp	r2, r3
 1337 0174 00D2     		bcs	.LCB1166
 1338 0176 70E7     		b	.L89	@long jump
 1339              	.LCB1166:
1557:.\Generated_Source\PSoC4/BLE_eventHandler.c ****                                 }
1558:.\Generated_Source\PSoC4/BLE_eventHandler.c ****                             }
1559:.\Generated_Source\PSoC4/BLE_eventHandler.c ****                         }
1560:.\Generated_Source\PSoC4/BLE_eventHandler.c ****                     }
1561:.\Generated_Source\PSoC4/BLE_eventHandler.c ****                 }
1562:.\Generated_Source\PSoC4/BLE_eventHandler.c ****             }
1563:.\Generated_Source\PSoC4/BLE_eventHandler.c **** 
1564:.\Generated_Source\PSoC4/BLE_eventHandler.c ****             if((discSrvcInfo != NULL) && (discSrvcInfo->range.endHandle == CYBLE_GATT_ATTR_HANDLE_E
 1340              		.loc 1 1564 0 is_stmt 1
 1341 0178 3B69     		ldr	r3, [r7, #16]
 1342 017a 002B     		cmp	r3, #0
 1343 017c 1ED0     		beq	.L90
 1344              		.loc 1 1564 0 is_stmt 0 discriminator 1
 1345 017e 3B69     		ldr	r3, [r7, #16]
 1346 0180 5A88     		ldrh	r2, [r3, #2]
 1347 0182 1D4B     		ldr	r3, .L91+20
 1348 0184 9A42     		cmp	r2, r3
 1349 0186 19D1     		bne	.L90
1565:.\Generated_Source\PSoC4/BLE_eventHandler.c ****             {
1566:.\Generated_Source\PSoC4/BLE_eventHandler.c ****             #if(CYBLE_STACK_MODE_DEBUG)
ARM GAS  C:\Users\Evan\AppData\Local\Temp\ccmgTxtA.s 			page 54


1567:.\Generated_Source\PSoC4/BLE_eventHandler.c ****                 CyBle_ApplCallback(CYBLE_EVT_GATTC_SRVC_DISCOVERY_COMPLETE, NULL);
1568:.\Generated_Source\PSoC4/BLE_eventHandler.c ****             #endif /* CYBLE_STACK_MODE_DEBUG */   
1569:.\Generated_Source\PSoC4/BLE_eventHandler.c ****                 CyBle_SetClientState(CYBLE_CLIENT_STATE_INCL_DISCOVERING);
 1350              		.loc 1 1569 0 is_stmt 1
 1351 0188 164B     		ldr	r3, .L91
 1352 018a 0222     		mov	r2, #2
 1353 018c 1A70     		strb	r2, [r3]
1570:.\Generated_Source\PSoC4/BLE_eventHandler.c ****                 cyBle_disCount = 0u;
 1354              		.loc 1 1570 0
 1355 018e 184B     		ldr	r3, .L91+12
 1356 0190 0022     		mov	r2, #0
 1357 0192 1A70     		strb	r2, [r3]
1571:.\Generated_Source\PSoC4/BLE_eventHandler.c ****                 if(CYBLE_ERROR_OK != CyBle_NextInclDiscovery())
 1358              		.loc 1 1571 0
 1359 0194 FFF7FEFF 		bl	CyBle_NextInclDiscovery
 1360 0198 031C     		mov	r3, r0
 1361 019a 002B     		cmp	r3, #0
 1362 019c 0ED0     		beq	.L90
1572:.\Generated_Source\PSoC4/BLE_eventHandler.c ****                 {
1573:.\Generated_Source\PSoC4/BLE_eventHandler.c ****                     CyBle_ApplCallback(CYBLE_EVT_GATTC_INCL_DISCOVERY_FAILED, NULL);
 1363              		.loc 1 1573 0
 1364 019e 154B     		ldr	r3, .L91+16
 1365 01a0 1B68     		ldr	r3, [r3]
 1366 01a2 8422     		mov	r2, #132
 1367 01a4 5200     		lsl	r2, r2, #1
 1368 01a6 101C     		mov	r0, r2
 1369 01a8 0021     		mov	r1, #0
 1370 01aa 9847     		blx	r3
1574:.\Generated_Source\PSoC4/BLE_eventHandler.c ****                     cyBle_eventHandlerFlag &= (uint8)~CYBLE_AUTO_DISCOVERY;
 1371              		.loc 1 1574 0
 1372 01ac 0E4B     		ldr	r3, .L91+4
 1373 01ae 1B78     		ldrb	r3, [r3]
 1374 01b0 DBB2     		uxtb	r3, r3
 1375 01b2 0222     		mov	r2, #2
 1376 01b4 9343     		bic	r3, r2
 1377 01b6 DAB2     		uxtb	r2, r3
 1378 01b8 0B4B     		ldr	r3, .L91+4
 1379 01ba 1A70     		strb	r2, [r3]
 1380              	.L90:
1575:.\Generated_Source\PSoC4/BLE_eventHandler.c ****                 }
1576:.\Generated_Source\PSoC4/BLE_eventHandler.c ****             }
1577:.\Generated_Source\PSoC4/BLE_eventHandler.c ****             cyBle_eventHandlerFlag &= (uint8)~CYBLE_CALLBACK;
 1381              		.loc 1 1577 0
 1382 01bc 0A4B     		ldr	r3, .L91+4
 1383 01be 1B78     		ldrb	r3, [r3]
 1384 01c0 DBB2     		uxtb	r3, r3
 1385 01c2 0122     		mov	r2, #1
 1386 01c4 9343     		bic	r3, r2
 1387 01c6 DAB2     		uxtb	r2, r3
 1388 01c8 074B     		ldr	r3, .L91+4
 1389 01ca 1A70     		strb	r2, [r3]
 1390 01cc 06E0     		b	.L78
 1391              	.L81:
1578:.\Generated_Source\PSoC4/BLE_eventHandler.c ****         }
1579:.\Generated_Source\PSoC4/BLE_eventHandler.c ****         else
1580:.\Generated_Source\PSoC4/BLE_eventHandler.c ****         {
1581:.\Generated_Source\PSoC4/BLE_eventHandler.c ****             CyBle_ApplCallback(CYBLE_EVT_GATTC_SRVC_DISCOVERY_FAILED, NULL);
ARM GAS  C:\Users\Evan\AppData\Local\Temp\ccmgTxtA.s 			page 55


 1392              		.loc 1 1581 0
 1393 01ce 094B     		ldr	r3, .L91+16
 1394 01d0 1B68     		ldr	r3, [r3]
 1395 01d2 0822     		mov	r2, #8
 1396 01d4 FF32     		add	r2, r2, #255
 1397 01d6 101C     		mov	r0, r2
 1398 01d8 0021     		mov	r1, #0
 1399 01da 9847     		blx	r3
 1400              	.L78:
1582:.\Generated_Source\PSoC4/BLE_eventHandler.c ****         }
1583:.\Generated_Source\PSoC4/BLE_eventHandler.c ****     }
1584:.\Generated_Source\PSoC4/BLE_eventHandler.c **** }
 1401              		.loc 1 1584 0
 1402 01dc BD46     		mov	sp, r7
 1403 01de 06B0     		add	sp, sp, #24
 1404              		@ sp needed
 1405 01e0 80BD     		pop	{r7, pc}
 1406              	.L92:
 1407 01e2 C046     		.align	2
 1408              	.L91:
 1409 01e4 00000000 		.word	cyBle_clientState
 1410 01e8 00000000 		.word	cyBle_eventHandlerFlag
 1411 01ec 00000000 		.word	cyBle_serverInfo
 1412 01f0 00000000 		.word	cyBle_disCount
 1413 01f4 00000000 		.word	CyBle_ApplCallback
 1414 01f8 FFFF0000 		.word	65535
 1415              		.cfi_endproc
 1416              	.LFE13:
 1417              		.size	CyBle_ReadByGroupEventHandler, .-CyBle_ReadByGroupEventHandler
 1418              		.section	.text.CyBle_NextInclDiscovery,"ax",%progbits
 1419              		.align	2
 1420              		.global	CyBle_NextInclDiscovery
 1421              		.code	16
 1422              		.thumb_func
 1423              		.type	CyBle_NextInclDiscovery, %function
 1424              	CyBle_NextInclDiscovery:
 1425              	.LFB14:
1585:.\Generated_Source\PSoC4/BLE_eventHandler.c **** 
1586:.\Generated_Source\PSoC4/BLE_eventHandler.c **** 
1587:.\Generated_Source\PSoC4/BLE_eventHandler.c **** /****************************************************************************** 
1588:.\Generated_Source\PSoC4/BLE_eventHandler.c **** ##Function Name: CyBle_NextInclDiscovery
1589:.\Generated_Source\PSoC4/BLE_eventHandler.c **** *******************************************************************************
1590:.\Generated_Source\PSoC4/BLE_eventHandler.c **** 
1591:.\Generated_Source\PSoC4/BLE_eventHandler.c **** Summary:
1592:.\Generated_Source\PSoC4/BLE_eventHandler.c ****  Looks for the included services in the current service (pointed by
1593:.\Generated_Source\PSoC4/BLE_eventHandler.c ****   cyBle_disCount). If the current service handle range is invalid (any of start
1594:.\Generated_Source\PSoC4/BLE_eventHandler.c ****   or end handle is invalid), then increment the cyBle_disCount and check
1595:.\Generated_Source\PSoC4/BLE_eventHandler.c ****   the next service range and does so until a valid range is caught or the end of
1596:.\Generated_Source\PSoC4/BLE_eventHandler.c ****   the service set is reached.
1597:.\Generated_Source\PSoC4/BLE_eventHandler.c **** 
1598:.\Generated_Source\PSoC4/BLE_eventHandler.c **** Parameters:
1599:.\Generated_Source\PSoC4/BLE_eventHandler.c ****  None
1600:.\Generated_Source\PSoC4/BLE_eventHandler.c **** 
1601:.\Generated_Source\PSoC4/BLE_eventHandler.c **** Return:
1602:.\Generated_Source\PSoC4/BLE_eventHandler.c ****  uint16 apiResult - may be either:
1603:.\Generated_Source\PSoC4/BLE_eventHandler.c ****          - CYBLE_DESCR_DISC_DONE when there are no more descriptors.
1604:.\Generated_Source\PSoC4/BLE_eventHandler.c ****          - result of the CyBle_GattcDiscoverAllCharacteristicDescriptors().
ARM GAS  C:\Users\Evan\AppData\Local\Temp\ccmgTxtA.s 			page 56


1605:.\Generated_Source\PSoC4/BLE_eventHandler.c **** 
1606:.\Generated_Source\PSoC4/BLE_eventHandler.c **** ******************************************************************************/
1607:.\Generated_Source\PSoC4/BLE_eventHandler.c **** CYBLE_API_RESULT_T CyBle_NextInclDiscovery(void)
1608:.\Generated_Source\PSoC4/BLE_eventHandler.c **** {
 1426              		.loc 1 1608 0
 1427              		.cfi_startproc
 1428 0000 90B5     		push	{r4, r7, lr}
 1429              		.cfi_def_cfa_offset 12
 1430              		.cfi_offset 4, -12
 1431              		.cfi_offset 7, -8
 1432              		.cfi_offset 14, -4
 1433 0002 83B0     		sub	sp, sp, #12
 1434              		.cfi_def_cfa_offset 24
 1435 0004 00AF     		add	r7, sp, #0
 1436              		.cfi_def_cfa_register 7
1609:.\Generated_Source\PSoC4/BLE_eventHandler.c ****     CYBLE_API_RESULT_T apiResult;
1610:.\Generated_Source\PSoC4/BLE_eventHandler.c **** 
1611:.\Generated_Source\PSoC4/BLE_eventHandler.c ****     /* Skip not existing services */
1612:.\Generated_Source\PSoC4/BLE_eventHandler.c ****     while((cyBle_disCount < (uint8) CYBLE_SRVI_COUNT) &&
 1437              		.loc 1 1612 0
 1438 0006 05E0     		b	.L94
 1439              	.L96:
1613:.\Generated_Source\PSoC4/BLE_eventHandler.c ****           (cyBle_serverInfo[cyBle_disCount].range.startHandle == CYBLE_GATT_INVALID_ATTR_HANDLE_VAL
1614:.\Generated_Source\PSoC4/BLE_eventHandler.c ****     {
1615:.\Generated_Source\PSoC4/BLE_eventHandler.c ****         cyBle_disCount++;
 1440              		.loc 1 1615 0
 1441 0008 1A4B     		ldr	r3, .L100
 1442 000a 1B78     		ldrb	r3, [r3]
 1443 000c 0133     		add	r3, r3, #1
 1444 000e DAB2     		uxtb	r2, r3
 1445 0010 184B     		ldr	r3, .L100
 1446 0012 1A70     		strb	r2, [r3]
 1447              	.L94:
1612:.\Generated_Source\PSoC4/BLE_eventHandler.c ****     while((cyBle_disCount < (uint8) CYBLE_SRVI_COUNT) &&
 1448              		.loc 1 1612 0 discriminator 1
 1449 0014 174B     		ldr	r3, .L100
 1450 0016 1B78     		ldrb	r3, [r3]
 1451 0018 012B     		cmp	r3, #1
 1452 001a 0AD8     		bhi	.L95
1613:.\Generated_Source\PSoC4/BLE_eventHandler.c ****           (cyBle_serverInfo[cyBle_disCount].range.startHandle == CYBLE_GATT_INVALID_ATTR_HANDLE_VAL
 1453              		.loc 1 1613 0 discriminator 2
 1454 001c 154B     		ldr	r3, .L100
 1455 001e 1B78     		ldrb	r3, [r3]
 1456 0020 1A1C     		mov	r2, r3
 1457 0022 1549     		ldr	r1, .L100+4
 1458 0024 131C     		mov	r3, r2
 1459 0026 5B00     		lsl	r3, r3, #1
 1460 0028 9B18     		add	r3, r3, r2
 1461 002a 5B00     		lsl	r3, r3, #1
 1462 002c 5B5A     		ldrh	r3, [r3, r1]
1612:.\Generated_Source\PSoC4/BLE_eventHandler.c ****     while((cyBle_disCount < (uint8) CYBLE_SRVI_COUNT) &&
 1463              		.loc 1 1612 0 discriminator 2
 1464 002e 002B     		cmp	r3, #0
 1465 0030 EAD0     		beq	.L96
 1466              	.L95:
1616:.\Generated_Source\PSoC4/BLE_eventHandler.c ****     }
1617:.\Generated_Source\PSoC4/BLE_eventHandler.c **** 
ARM GAS  C:\Users\Evan\AppData\Local\Temp\ccmgTxtA.s 			page 57


1618:.\Generated_Source\PSoC4/BLE_eventHandler.c ****     if(cyBle_disCount < (uint8) CYBLE_SRVI_COUNT)
 1467              		.loc 1 1618 0
 1468 0032 104B     		ldr	r3, .L100
 1469 0034 1B78     		ldrb	r3, [r3]
 1470 0036 012B     		cmp	r3, #1
 1471 0038 11D8     		bhi	.L97
1619:.\Generated_Source\PSoC4/BLE_eventHandler.c ****     {
1620:.\Generated_Source\PSoC4/BLE_eventHandler.c ****         apiResult = CyBle_GattcFindIncludedServices(cyBle_connHandle, &cyBle_serverInfo[cyBle_disCo
 1472              		.loc 1 1620 0
 1473 003a 0E4B     		ldr	r3, .L100
 1474 003c 1B78     		ldrb	r3, [r3]
 1475 003e 1A1C     		mov	r2, r3
 1476 0040 131C     		mov	r3, r2
 1477 0042 5B00     		lsl	r3, r3, #1
 1478 0044 9B18     		add	r3, r3, r2
 1479 0046 5B00     		lsl	r3, r3, #1
 1480 0048 0B4A     		ldr	r2, .L100+4
 1481 004a 9A18     		add	r2, r3, r2
 1482 004c BC1D     		add	r4, r7, #6
 1483 004e 0B4B     		ldr	r3, .L100+8
 1484 0050 1868     		ldr	r0, [r3]
 1485 0052 111C     		mov	r1, r2
 1486 0054 FFF7FEFF 		bl	CyBle_GattcFindIncludedServices
 1487 0058 031C     		mov	r3, r0
 1488 005a 2380     		strh	r3, [r4]
 1489 005c 03E0     		b	.L98
 1490              	.L97:
1621:.\Generated_Source\PSoC4/BLE_eventHandler.c ****     }
1622:.\Generated_Source\PSoC4/BLE_eventHandler.c ****     else
1623:.\Generated_Source\PSoC4/BLE_eventHandler.c ****     {
1624:.\Generated_Source\PSoC4/BLE_eventHandler.c ****         apiResult = CYBLE_INCL_DISC_DONE;
 1491              		.loc 1 1624 0
 1492 005e BB1D     		add	r3, r7, #6
 1493 0060 8022     		mov	r2, #128
 1494 0062 5200     		lsl	r2, r2, #1
 1495 0064 1A80     		strh	r2, [r3]
 1496              	.L98:
1625:.\Generated_Source\PSoC4/BLE_eventHandler.c ****     }
1626:.\Generated_Source\PSoC4/BLE_eventHandler.c **** 
1627:.\Generated_Source\PSoC4/BLE_eventHandler.c ****     return (apiResult);
 1497              		.loc 1 1627 0
 1498 0066 BB1D     		add	r3, r7, #6
 1499 0068 1B88     		ldrh	r3, [r3]
1628:.\Generated_Source\PSoC4/BLE_eventHandler.c **** }
 1500              		.loc 1 1628 0
 1501 006a 181C     		mov	r0, r3
 1502 006c BD46     		mov	sp, r7
 1503 006e 03B0     		add	sp, sp, #12
 1504              		@ sp needed
 1505 0070 90BD     		pop	{r4, r7, pc}
 1506              	.L101:
 1507 0072 C046     		.align	2
 1508              	.L100:
 1509 0074 00000000 		.word	cyBle_disCount
 1510 0078 00000000 		.word	cyBle_serverInfo
 1511 007c 00000000 		.word	cyBle_connHandle
 1512              		.cfi_endproc
ARM GAS  C:\Users\Evan\AppData\Local\Temp\ccmgTxtA.s 			page 58


 1513              	.LFE14:
 1514              		.size	CyBle_NextInclDiscovery, .-CyBle_NextInclDiscovery
 1515              		.section	.text.CyBle_GapcDiscoverCharacteristicsEventHandler,"ax",%progbits
 1516              		.align	2
 1517              		.code	16
 1518              		.thumb_func
 1519              		.type	CyBle_GapcDiscoverCharacteristicsEventHandler, %function
 1520              	CyBle_GapcDiscoverCharacteristicsEventHandler:
 1521              	.LFB15:
1629:.\Generated_Source\PSoC4/BLE_eventHandler.c **** 
1630:.\Generated_Source\PSoC4/BLE_eventHandler.c **** 
1631:.\Generated_Source\PSoC4/BLE_eventHandler.c **** /****************************************************************************** 
1632:.\Generated_Source\PSoC4/BLE_eventHandler.c **** ##Function Name: CyBle_GapcDiscoverCharacteristicsEventHandler
1633:.\Generated_Source\PSoC4/BLE_eventHandler.c **** *******************************************************************************
1634:.\Generated_Source\PSoC4/BLE_eventHandler.c **** 
1635:.\Generated_Source\PSoC4/BLE_eventHandler.c **** Summary:
1636:.\Generated_Source\PSoC4/BLE_eventHandler.c ****  This function is called on receiving a "CYBLE_EVT_GATTC_READ_BY_TYPE_RSP"
1637:.\Generated_Source\PSoC4/BLE_eventHandler.c ****  event. Based on the service UUID, an appropriate data structure is populated
1638:.\Generated_Source\PSoC4/BLE_eventHandler.c ****  using the data received as part of the callback.
1639:.\Generated_Source\PSoC4/BLE_eventHandler.c **** 
1640:.\Generated_Source\PSoC4/BLE_eventHandler.c **** Parameters:
1641:.\Generated_Source\PSoC4/BLE_eventHandler.c ****  *discCharInfo:  the pointer to a characteristic information structure.
1642:.\Generated_Source\PSoC4/BLE_eventHandler.c **** 
1643:.\Generated_Source\PSoC4/BLE_eventHandler.c **** Return:
1644:.\Generated_Source\PSoC4/BLE_eventHandler.c ****  None
1645:.\Generated_Source\PSoC4/BLE_eventHandler.c **** 
1646:.\Generated_Source\PSoC4/BLE_eventHandler.c **** ******************************************************************************/
1647:.\Generated_Source\PSoC4/BLE_eventHandler.c **** static void CyBle_GapcDiscoverCharacteristicsEventHandler(CYBLE_DISC_CHAR_INFO_T *discCharInfo)
1648:.\Generated_Source\PSoC4/BLE_eventHandler.c **** {
 1522              		.loc 1 1648 0
 1523              		.cfi_startproc
 1524 0000 80B5     		push	{r7, lr}
 1525              		.cfi_def_cfa_offset 8
 1526              		.cfi_offset 7, -8
 1527              		.cfi_offset 14, -4
 1528 0002 82B0     		sub	sp, sp, #8
 1529              		.cfi_def_cfa_offset 16
 1530 0004 00AF     		add	r7, sp, #0
 1531              		.cfi_def_cfa_register 7
 1532 0006 7860     		str	r0, [r7, #4]
1649:.\Generated_Source\PSoC4/BLE_eventHandler.c ****     switch(discCharInfo->uuid.uuid16)
 1533              		.loc 1 1649 0
 1534 0008 7B68     		ldr	r3, [r7, #4]
 1535 000a DB88     		ldrh	r3, [r3, #6]
 1536 000c 364A     		ldr	r2, .L122
 1537 000e 9B18     		add	r3, r3, r2
 1538 0010 042B     		cmp	r3, #4
 1539 0012 00D9     		bls	.LCB1354
 1540 0014 63E0     		b	.L121	@long jump
 1541              	.LCB1354:
 1542 0016 9A00     		lsl	r2, r3, #2
 1543 0018 344B     		ldr	r3, .L122+4
 1544 001a D318     		add	r3, r2, r3
 1545 001c 1B68     		ldr	r3, [r3]
 1546 001e 9F46     		mov	pc, r3
 1547              		.section	.rodata
 1548              		.align	2
ARM GAS  C:\Users\Evan\AppData\Local\Temp\ccmgTxtA.s 			page 59


 1549              	.L105:
 1550 0000 20000000 		.word	.L104
 1551 0004 46000000 		.word	.L106
 1552 0008 6C000000 		.word	.L107
 1553 000c 92000000 		.word	.L108
 1554 0010 B8000000 		.word	.L109
 1555              		.section	.text.CyBle_GapcDiscoverCharacteristicsEventHandler
 1556              	.L104:
1650:.\Generated_Source\PSoC4/BLE_eventHandler.c ****     {
1651:.\Generated_Source\PSoC4/BLE_eventHandler.c ****     case CYBLE_UUID_CHAR_DEVICE_NAME:
1652:.\Generated_Source\PSoC4/BLE_eventHandler.c ****         CYBLE_GapcCheckCharHandle(cyBle_gapc.deviceNameCharHandle, discCharInfo);
 1557              		.loc 1 1652 0
 1558 0020 334B     		ldr	r3, .L122+8
 1559 0022 1B88     		ldrh	r3, [r3]
 1560 0024 002B     		cmp	r3, #0
 1561 0026 04D1     		bne	.L110
 1562              		.loc 1 1652 0 is_stmt 0 discriminator 1
 1563 0028 7B68     		ldr	r3, [r7, #4]
 1564 002a 9A88     		ldrh	r2, [r3, #4]
 1565 002c 304B     		ldr	r3, .L122+8
 1566 002e 1A80     		strh	r2, [r3]
1653:.\Generated_Source\PSoC4/BLE_eventHandler.c ****         break;
 1567              		.loc 1 1653 0 is_stmt 1 discriminator 1
 1568 0030 56E0     		b	.L102
 1569              	.L110:
1652:.\Generated_Source\PSoC4/BLE_eventHandler.c ****         CYBLE_GapcCheckCharHandle(cyBle_gapc.deviceNameCharHandle, discCharInfo);
 1570              		.loc 1 1652 0 discriminator 2
 1571 0032 304B     		ldr	r3, .L122+12
 1572 0034 1B68     		ldr	r3, [r3]
 1573 0036 7A68     		ldr	r2, [r7, #4]
 1574 0038 0632     		add	r2, r2, #6
 1575 003a 8621     		mov	r1, #134
 1576 003c 4900     		lsl	r1, r1, #1
 1577 003e 081C     		mov	r0, r1
 1578 0040 111C     		mov	r1, r2
 1579 0042 9847     		blx	r3
 1580              		.loc 1 1653 0 discriminator 2
 1581 0044 4CE0     		b	.L102
 1582              	.L106:
1654:.\Generated_Source\PSoC4/BLE_eventHandler.c **** 
1655:.\Generated_Source\PSoC4/BLE_eventHandler.c ****     case CYBLE_UUID_CHAR_APPEARANCE:
1656:.\Generated_Source\PSoC4/BLE_eventHandler.c ****         CYBLE_GapcCheckCharHandle(cyBle_gapc.appearanceCharHandle, discCharInfo);
 1583              		.loc 1 1656 0
 1584 0046 2A4B     		ldr	r3, .L122+8
 1585 0048 5B88     		ldrh	r3, [r3, #2]
 1586 004a 002B     		cmp	r3, #0
 1587 004c 04D1     		bne	.L113
 1588              		.loc 1 1656 0 is_stmt 0 discriminator 1
 1589 004e 7B68     		ldr	r3, [r7, #4]
 1590 0050 9A88     		ldrh	r2, [r3, #4]
 1591 0052 274B     		ldr	r3, .L122+8
 1592 0054 5A80     		strh	r2, [r3, #2]
1657:.\Generated_Source\PSoC4/BLE_eventHandler.c ****         break;
 1593              		.loc 1 1657 0 is_stmt 1 discriminator 1
 1594 0056 43E0     		b	.L102
 1595              	.L113:
1656:.\Generated_Source\PSoC4/BLE_eventHandler.c ****         CYBLE_GapcCheckCharHandle(cyBle_gapc.appearanceCharHandle, discCharInfo);
ARM GAS  C:\Users\Evan\AppData\Local\Temp\ccmgTxtA.s 			page 60


 1596              		.loc 1 1656 0 discriminator 2
 1597 0058 264B     		ldr	r3, .L122+12
 1598 005a 1B68     		ldr	r3, [r3]
 1599 005c 7A68     		ldr	r2, [r7, #4]
 1600 005e 0632     		add	r2, r2, #6
 1601 0060 8621     		mov	r1, #134
 1602 0062 4900     		lsl	r1, r1, #1
 1603 0064 081C     		mov	r0, r1
 1604 0066 111C     		mov	r1, r2
 1605 0068 9847     		blx	r3
 1606              		.loc 1 1657 0 discriminator 2
 1607 006a 39E0     		b	.L102
 1608              	.L107:
1658:.\Generated_Source\PSoC4/BLE_eventHandler.c **** 
1659:.\Generated_Source\PSoC4/BLE_eventHandler.c ****     case CYBLE_UUID_CHAR_PERIPH_PRIVCY_FLAG:
1660:.\Generated_Source\PSoC4/BLE_eventHandler.c ****         CYBLE_GapcCheckCharHandle(cyBle_gapc.periphPrivacyCharHandle, discCharInfo);
 1609              		.loc 1 1660 0
 1610 006c 204B     		ldr	r3, .L122+8
 1611 006e 9B88     		ldrh	r3, [r3, #4]
 1612 0070 002B     		cmp	r3, #0
 1613 0072 04D1     		bne	.L115
 1614              		.loc 1 1660 0 is_stmt 0 discriminator 1
 1615 0074 7B68     		ldr	r3, [r7, #4]
 1616 0076 9A88     		ldrh	r2, [r3, #4]
 1617 0078 1D4B     		ldr	r3, .L122+8
 1618 007a 9A80     		strh	r2, [r3, #4]
1661:.\Generated_Source\PSoC4/BLE_eventHandler.c ****         break;
 1619              		.loc 1 1661 0 is_stmt 1 discriminator 1
 1620 007c 30E0     		b	.L102
 1621              	.L115:
1660:.\Generated_Source\PSoC4/BLE_eventHandler.c ****         CYBLE_GapcCheckCharHandle(cyBle_gapc.periphPrivacyCharHandle, discCharInfo);
 1622              		.loc 1 1660 0 discriminator 2
 1623 007e 1D4B     		ldr	r3, .L122+12
 1624 0080 1B68     		ldr	r3, [r3]
 1625 0082 7A68     		ldr	r2, [r7, #4]
 1626 0084 0632     		add	r2, r2, #6
 1627 0086 8621     		mov	r1, #134
 1628 0088 4900     		lsl	r1, r1, #1
 1629 008a 081C     		mov	r0, r1
 1630 008c 111C     		mov	r1, r2
 1631 008e 9847     		blx	r3
 1632              		.loc 1 1661 0 discriminator 2
 1633 0090 26E0     		b	.L102
 1634              	.L108:
1662:.\Generated_Source\PSoC4/BLE_eventHandler.c **** 
1663:.\Generated_Source\PSoC4/BLE_eventHandler.c ****     case CYBLE_UUID_CHAR_RECONNECTION_ADDR:
1664:.\Generated_Source\PSoC4/BLE_eventHandler.c ****         CYBLE_GapcCheckCharHandle(cyBle_gapc.reconnAddrCharHandle, discCharInfo);
 1635              		.loc 1 1664 0
 1636 0092 174B     		ldr	r3, .L122+8
 1637 0094 DB88     		ldrh	r3, [r3, #6]
 1638 0096 002B     		cmp	r3, #0
 1639 0098 04D1     		bne	.L117
 1640              		.loc 1 1664 0 is_stmt 0 discriminator 1
 1641 009a 7B68     		ldr	r3, [r7, #4]
 1642 009c 9A88     		ldrh	r2, [r3, #4]
 1643 009e 144B     		ldr	r3, .L122+8
 1644 00a0 DA80     		strh	r2, [r3, #6]
ARM GAS  C:\Users\Evan\AppData\Local\Temp\ccmgTxtA.s 			page 61


1665:.\Generated_Source\PSoC4/BLE_eventHandler.c ****         break;
 1645              		.loc 1 1665 0 is_stmt 1 discriminator 1
 1646 00a2 1DE0     		b	.L102
 1647              	.L117:
1664:.\Generated_Source\PSoC4/BLE_eventHandler.c ****         CYBLE_GapcCheckCharHandle(cyBle_gapc.reconnAddrCharHandle, discCharInfo);
 1648              		.loc 1 1664 0 discriminator 2
 1649 00a4 134B     		ldr	r3, .L122+12
 1650 00a6 1B68     		ldr	r3, [r3]
 1651 00a8 7A68     		ldr	r2, [r7, #4]
 1652 00aa 0632     		add	r2, r2, #6
 1653 00ac 8621     		mov	r1, #134
 1654 00ae 4900     		lsl	r1, r1, #1
 1655 00b0 081C     		mov	r0, r1
 1656 00b2 111C     		mov	r1, r2
 1657 00b4 9847     		blx	r3
 1658              		.loc 1 1665 0 discriminator 2
 1659 00b6 13E0     		b	.L102
 1660              	.L109:
1666:.\Generated_Source\PSoC4/BLE_eventHandler.c **** 
1667:.\Generated_Source\PSoC4/BLE_eventHandler.c ****     case CYBLE_UUID_CHAR_PRFRRD_CNXN_PARAM:
1668:.\Generated_Source\PSoC4/BLE_eventHandler.c ****         CYBLE_GapcCheckCharHandle(cyBle_gapc.prefConnParamCharHandle, discCharInfo);
 1661              		.loc 1 1668 0
 1662 00b8 0D4B     		ldr	r3, .L122+8
 1663 00ba 1B89     		ldrh	r3, [r3, #8]
 1664 00bc 002B     		cmp	r3, #0
 1665 00be 04D1     		bne	.L119
 1666              		.loc 1 1668 0 is_stmt 0 discriminator 1
 1667 00c0 7B68     		ldr	r3, [r7, #4]
 1668 00c2 9A88     		ldrh	r2, [r3, #4]
 1669 00c4 0A4B     		ldr	r3, .L122+8
 1670 00c6 1A81     		strh	r2, [r3, #8]
1669:.\Generated_Source\PSoC4/BLE_eventHandler.c ****         break;
 1671              		.loc 1 1669 0 is_stmt 1 discriminator 1
 1672 00c8 0AE0     		b	.L102
 1673              	.L119:
1668:.\Generated_Source\PSoC4/BLE_eventHandler.c ****         CYBLE_GapcCheckCharHandle(cyBle_gapc.prefConnParamCharHandle, discCharInfo);
 1674              		.loc 1 1668 0 discriminator 2
 1675 00ca 0A4B     		ldr	r3, .L122+12
 1676 00cc 1B68     		ldr	r3, [r3]
 1677 00ce 7A68     		ldr	r2, [r7, #4]
 1678 00d0 0632     		add	r2, r2, #6
 1679 00d2 8621     		mov	r1, #134
 1680 00d4 4900     		lsl	r1, r1, #1
 1681 00d6 081C     		mov	r0, r1
 1682 00d8 111C     		mov	r1, r2
 1683 00da 9847     		blx	r3
 1684              		.loc 1 1669 0 discriminator 2
 1685 00dc 00E0     		b	.L102
 1686              	.L121:
1670:.\Generated_Source\PSoC4/BLE_eventHandler.c **** 
1671:.\Generated_Source\PSoC4/BLE_eventHandler.c ****     default:
1672:.\Generated_Source\PSoC4/BLE_eventHandler.c ****         break;
 1687              		.loc 1 1672 0
 1688 00de C046     		mov	r8, r8
 1689              	.L102:
1673:.\Generated_Source\PSoC4/BLE_eventHandler.c ****     }
1674:.\Generated_Source\PSoC4/BLE_eventHandler.c **** }
ARM GAS  C:\Users\Evan\AppData\Local\Temp\ccmgTxtA.s 			page 62


 1690              		.loc 1 1674 0
 1691 00e0 BD46     		mov	sp, r7
 1692 00e2 02B0     		add	sp, sp, #8
 1693              		@ sp needed
 1694 00e4 80BD     		pop	{r7, pc}
 1695              	.L123:
 1696 00e6 C046     		.align	2
 1697              	.L122:
 1698 00e8 00D6FFFF 		.word	-10752
 1699 00ec 00000000 		.word	.L105
 1700 00f0 00000000 		.word	cyBle_gapc
 1701 00f4 00000000 		.word	CyBle_ApplCallback
 1702              		.cfi_endproc
 1703              	.LFE15:
 1704              		.size	CyBle_GapcDiscoverCharacteristicsEventHandler, .-CyBle_GapcDiscoverCharacteristicsEventHandl
 1705              		.section	.text.CyBle_ReadByTypeEventHandler,"ax",%progbits
 1706              		.align	2
 1707              		.global	CyBle_ReadByTypeEventHandler
 1708              		.code	16
 1709              		.thumb_func
 1710              		.type	CyBle_ReadByTypeEventHandler, %function
 1711              	CyBle_ReadByTypeEventHandler:
 1712              	.LFB16:
1675:.\Generated_Source\PSoC4/BLE_eventHandler.c **** 
1676:.\Generated_Source\PSoC4/BLE_eventHandler.c **** 
1677:.\Generated_Source\PSoC4/BLE_eventHandler.c **** /****************************************************************************** 
1678:.\Generated_Source\PSoC4/BLE_eventHandler.c **** ##Function Name: CyBle_ReadByTypeEventHandler
1679:.\Generated_Source\PSoC4/BLE_eventHandler.c **** *******************************************************************************
1680:.\Generated_Source\PSoC4/BLE_eventHandler.c **** Summary:
1681:.\Generated_Source\PSoC4/BLE_eventHandler.c ****  Handles the Read By Type Response Event during an automatic server discovery
1682:.\Generated_Source\PSoC4/BLE_eventHandler.c ****  process.
1683:.\Generated_Source\PSoC4/BLE_eventHandler.c **** 
1684:.\Generated_Source\PSoC4/BLE_eventHandler.c **** Parameters:
1685:.\Generated_Source\PSoC4/BLE_eventHandler.c ****  CYBLE_GATT_READ_BY_TYPE_RSP_PARAM_T *eventParam: The event parameters for a
1686:.\Generated_Source\PSoC4/BLE_eventHandler.c ****                                                   Read By Type Response.
1687:.\Generated_Source\PSoC4/BLE_eventHandler.c **** 
1688:.\Generated_Source\PSoC4/BLE_eventHandler.c **** Return:
1689:.\Generated_Source\PSoC4/BLE_eventHandler.c ****  None.
1690:.\Generated_Source\PSoC4/BLE_eventHandler.c **** 
1691:.\Generated_Source\PSoC4/BLE_eventHandler.c **** ******************************************************************************/
1692:.\Generated_Source\PSoC4/BLE_eventHandler.c **** void CyBle_ReadByTypeEventHandler(CYBLE_GATTC_READ_BY_TYPE_RSP_PARAM_T *eventParam)
1693:.\Generated_Source\PSoC4/BLE_eventHandler.c **** {
 1713              		.loc 1 1693 0
 1714              		.cfi_startproc
 1715 0000 80B5     		push	{r7, lr}
 1716              		.cfi_def_cfa_offset 8
 1717              		.cfi_offset 7, -8
 1718              		.cfi_offset 14, -4
 1719 0002 92B0     		sub	sp, sp, #72
 1720              		.cfi_def_cfa_offset 80
 1721 0004 00AF     		add	r7, sp, #0
 1722              		.cfi_def_cfa_register 7
 1723 0006 7860     		str	r0, [r7, #4]
1694:.\Generated_Source\PSoC4/BLE_eventHandler.c ****     uint16 dataLength;
1695:.\Generated_Source\PSoC4/BLE_eventHandler.c ****     uint16 attrLength;
1696:.\Generated_Source\PSoC4/BLE_eventHandler.c ****     uint16 i, j;
1697:.\Generated_Source\PSoC4/BLE_eventHandler.c ****     uint8 *attrVal;
ARM GAS  C:\Users\Evan\AppData\Local\Temp\ccmgTxtA.s 			page 63


1698:.\Generated_Source\PSoC4/BLE_eventHandler.c **** 
1699:.\Generated_Source\PSoC4/BLE_eventHandler.c ****     if(0u != (cyBle_eventHandlerFlag & CYBLE_AUTO_DISCOVERY))
 1724              		.loc 1 1699 0
 1725 0008 CA4B     		ldr	r3, .L171
 1726 000a 1B78     		ldrb	r3, [r3]
 1727 000c DBB2     		uxtb	r3, r3
 1728 000e 1A1C     		mov	r2, r3
 1729 0010 0223     		mov	r3, #2
 1730 0012 1340     		and	r3, r2
 1731 0014 00D1     		bne	.LCB1532
 1732 0016 1AE2     		b	.L124	@long jump
 1733              	.LCB1532:
1700:.\Generated_Source\PSoC4/BLE_eventHandler.c ****     {
1701:.\Generated_Source\PSoC4/BLE_eventHandler.c ****         /* Count of service information pieces in this mtu */
1702:.\Generated_Source\PSoC4/BLE_eventHandler.c ****         dataLength = eventParam->attrData.length;
 1734              		.loc 1 1702 0
 1735 0018 3B1C     		mov	r3, r7
 1736 001a 3E33     		add	r3, r3, #62
 1737 001c 7A68     		ldr	r2, [r7, #4]
 1738 001e 1289     		ldrh	r2, [r2, #8]
 1739 0020 1A80     		strh	r2, [r3]
1703:.\Generated_Source\PSoC4/BLE_eventHandler.c ****         attrLength = eventParam->attrData.attrLen;
 1740              		.loc 1 1703 0
 1741 0022 3B1C     		mov	r3, r7
 1742 0024 3C33     		add	r3, r3, #60
 1743 0026 7A68     		ldr	r2, [r7, #4]
 1744 0028 5289     		ldrh	r2, [r2, #10]
 1745 002a 1A80     		strh	r2, [r3]
1704:.\Generated_Source\PSoC4/BLE_eventHandler.c ****         attrVal = eventParam->attrData.attrValue;
 1746              		.loc 1 1704 0
 1747 002c 7B68     		ldr	r3, [r7, #4]
 1748 002e 5B68     		ldr	r3, [r3, #4]
 1749 0030 3B64     		str	r3, [r7, #64]
1705:.\Generated_Source\PSoC4/BLE_eventHandler.c ****         
1706:.\Generated_Source\PSoC4/BLE_eventHandler.c ****         if(CYBLE_CLIENT_STATE_CHAR_DISCOVERING == CyBle_GetClientState())
 1750              		.loc 1 1706 0
 1751 0032 C14B     		ldr	r3, .L171+4
 1752 0034 1B78     		ldrb	r3, [r3]
 1753 0036 032B     		cmp	r3, #3
 1754 0038 00D0     		beq	.LCB1549
 1755 003a DEE0     		b	.L126	@long jump
 1756              	.LCB1549:
 1757              	.LBB4:
1707:.\Generated_Source\PSoC4/BLE_eventHandler.c ****         {
1708:.\Generated_Source\PSoC4/BLE_eventHandler.c ****             CYBLE_DISC_CHAR_INFO_T discCharInfo;
1709:.\Generated_Source\PSoC4/BLE_eventHandler.c ****             
1710:.\Generated_Source\PSoC4/BLE_eventHandler.c ****             for(i = 0u; i < attrLength; i += dataLength)
 1758              		.loc 1 1710 0
 1759 003c 3B1C     		mov	r3, r7
 1760 003e 4633     		add	r3, r3, #70
 1761 0040 0022     		mov	r2, #0
 1762 0042 1A80     		strh	r2, [r3]
 1763 0044 CFE0     		b	.L127
 1764              	.L142:
1711:.\Generated_Source\PSoC4/BLE_eventHandler.c ****             {
1712:.\Generated_Source\PSoC4/BLE_eventHandler.c ****                 discCharInfo.charDeclHandle = CyBle_Get16ByPtr(attrVal);
 1765              		.loc 1 1712 0
ARM GAS  C:\Users\Evan\AppData\Local\Temp\ccmgTxtA.s 			page 64


 1766 0046 3B6C     		ldr	r3, [r7, #64]
 1767 0048 181C     		mov	r0, r3
 1768 004a FFF7FEFF 		bl	CyBle_Get16ByPtr
 1769 004e 031C     		mov	r3, r0
 1770 0050 1A1C     		mov	r2, r3
 1771 0052 3B1C     		mov	r3, r7
 1772 0054 2433     		add	r3, r3, #36
 1773 0056 1A80     		strh	r2, [r3]
1713:.\Generated_Source\PSoC4/BLE_eventHandler.c ****                 attrVal += sizeof(discCharInfo.charDeclHandle);
 1774              		.loc 1 1713 0
 1775 0058 3B6C     		ldr	r3, [r7, #64]
 1776 005a 0233     		add	r3, r3, #2
 1777 005c 3B64     		str	r3, [r7, #64]
1714:.\Generated_Source\PSoC4/BLE_eventHandler.c ****                 discCharInfo.properties = *attrVal;
 1778              		.loc 1 1714 0
 1779 005e 3B6C     		ldr	r3, [r7, #64]
 1780 0060 1A78     		ldrb	r2, [r3]
 1781 0062 3B1C     		mov	r3, r7
 1782 0064 2433     		add	r3, r3, #36
 1783 0066 9A70     		strb	r2, [r3, #2]
1715:.\Generated_Source\PSoC4/BLE_eventHandler.c ****                 attrVal += sizeof(discCharInfo.properties);
 1784              		.loc 1 1715 0
 1785 0068 3B6C     		ldr	r3, [r7, #64]
 1786 006a 0133     		add	r3, r3, #1
 1787 006c 3B64     		str	r3, [r7, #64]
1716:.\Generated_Source\PSoC4/BLE_eventHandler.c ****                 discCharInfo.valueHandle = CyBle_Get16ByPtr(attrVal);
 1788              		.loc 1 1716 0
 1789 006e 3B6C     		ldr	r3, [r7, #64]
 1790 0070 181C     		mov	r0, r3
 1791 0072 FFF7FEFF 		bl	CyBle_Get16ByPtr
 1792 0076 031C     		mov	r3, r0
 1793 0078 1A1C     		mov	r2, r3
 1794 007a 3B1C     		mov	r3, r7
 1795 007c 2433     		add	r3, r3, #36
 1796 007e 9A80     		strh	r2, [r3, #4]
1717:.\Generated_Source\PSoC4/BLE_eventHandler.c ****                 attrVal += sizeof(discCharInfo.valueHandle);
 1797              		.loc 1 1717 0
 1798 0080 3B6C     		ldr	r3, [r7, #64]
 1799 0082 0233     		add	r3, r3, #2
 1800 0084 3B64     		str	r3, [r7, #64]
1718:.\Generated_Source\PSoC4/BLE_eventHandler.c ****                 if(dataLength == CYBLE_DISC_CHAR_INFO_128_LEN)
 1801              		.loc 1 1718 0
 1802 0086 3B1C     		mov	r3, r7
 1803 0088 3E33     		add	r3, r3, #62
 1804 008a 1B88     		ldrh	r3, [r3]
 1805 008c 152B     		cmp	r3, #21
 1806 008e 12D1     		bne	.L128
1719:.\Generated_Source\PSoC4/BLE_eventHandler.c ****                 {
1720:.\Generated_Source\PSoC4/BLE_eventHandler.c ****                     discCharInfo.uuidFormat = CYBLE_GATT_128_BIT_UUID_FORMAT;
 1807              		.loc 1 1720 0
 1808 0090 3B1C     		mov	r3, r7
 1809 0092 2433     		add	r3, r3, #36
 1810 0094 0222     		mov	r2, #2
 1811 0096 9A75     		strb	r2, [r3, #22]
1721:.\Generated_Source\PSoC4/BLE_eventHandler.c ****                     (void)memcpy(&discCharInfo.uuid.uuid128, attrVal, CYBLE_GATT_128_BIT_UUID_SIZE)
 1812              		.loc 1 1721 0
 1813 0098 3A1C     		mov	r2, r7
ARM GAS  C:\Users\Evan\AppData\Local\Temp\ccmgTxtA.s 			page 65


 1814 009a 2A32     		add	r2, r2, #42
 1815 009c 3B6C     		ldr	r3, [r7, #64]
 1816 009e 111C     		mov	r1, r2
 1817 00a0 1A1C     		mov	r2, r3
 1818 00a2 1023     		mov	r3, #16
 1819 00a4 081C     		mov	r0, r1
 1820 00a6 111C     		mov	r1, r2
 1821 00a8 1A1C     		mov	r2, r3
 1822 00aa FFF7FEFF 		bl	memcpy
1722:.\Generated_Source\PSoC4/BLE_eventHandler.c ****                     attrVal += CYBLE_GATT_128_BIT_UUID_SIZE;
 1823              		.loc 1 1722 0
 1824 00ae 3B6C     		ldr	r3, [r7, #64]
 1825 00b0 1033     		add	r3, r3, #16
 1826 00b2 3B64     		str	r3, [r7, #64]
 1827 00b4 32E0     		b	.L129
 1828              	.L128:
1723:.\Generated_Source\PSoC4/BLE_eventHandler.c ****                     /* Add custom profile support */
1724:.\Generated_Source\PSoC4/BLE_eventHandler.c ****                 }
1725:.\Generated_Source\PSoC4/BLE_eventHandler.c ****                 else if(dataLength == CYBLE_DISC_CHAR_INFO_LEN)
 1829              		.loc 1 1725 0
 1830 00b6 3B1C     		mov	r3, r7
 1831 00b8 3E33     		add	r3, r3, #62
 1832 00ba 1B88     		ldrh	r3, [r3]
 1833 00bc 072B     		cmp	r3, #7
 1834 00be 2DD1     		bne	.L129
1726:.\Generated_Source\PSoC4/BLE_eventHandler.c ****                 {
1727:.\Generated_Source\PSoC4/BLE_eventHandler.c ****                     discCharInfo.uuidFormat = CYBLE_GATT_16_BIT_UUID_FORMAT;
 1835              		.loc 1 1727 0
 1836 00c0 3B1C     		mov	r3, r7
 1837 00c2 2433     		add	r3, r3, #36
 1838 00c4 0122     		mov	r2, #1
 1839 00c6 9A75     		strb	r2, [r3, #22]
1728:.\Generated_Source\PSoC4/BLE_eventHandler.c ****                     discCharInfo.uuid.uuid16 = CyBle_Get16ByPtr(attrVal);
 1840              		.loc 1 1728 0
 1841 00c8 3B6C     		ldr	r3, [r7, #64]
 1842 00ca 181C     		mov	r0, r3
 1843 00cc FFF7FEFF 		bl	CyBle_Get16ByPtr
 1844 00d0 031C     		mov	r3, r0
 1845 00d2 1A1C     		mov	r2, r3
 1846 00d4 3B1C     		mov	r3, r7
 1847 00d6 2433     		add	r3, r3, #36
 1848 00d8 DA80     		strh	r2, [r3, #6]
1729:.\Generated_Source\PSoC4/BLE_eventHandler.c ****                     attrVal += CYBLE_GATT_16_BIT_UUID_SIZE;
 1849              		.loc 1 1729 0
 1850 00da 3B6C     		ldr	r3, [r7, #64]
 1851 00dc 0233     		add	r3, r3, #2
 1852 00de 3B64     		str	r3, [r7, #64]
1730:.\Generated_Source\PSoC4/BLE_eventHandler.c **** 
1731:.\Generated_Source\PSoC4/BLE_eventHandler.c ****                     /* Switch by service uuid */
1732:.\Generated_Source\PSoC4/BLE_eventHandler.c ****                     switch (cyBle_serverInfo[cyBle_disCount].uuid)
 1853              		.loc 1 1732 0
 1854 00e0 964B     		ldr	r3, .L171+8
 1855 00e2 1B78     		ldrb	r3, [r3]
 1856 00e4 1A1C     		mov	r2, r3
 1857 00e6 9649     		ldr	r1, .L171+12
 1858 00e8 131C     		mov	r3, r2
 1859 00ea 5B00     		lsl	r3, r3, #1
ARM GAS  C:\Users\Evan\AppData\Local\Temp\ccmgTxtA.s 			page 66


 1860 00ec 9B18     		add	r3, r3, r2
 1861 00ee 5B00     		lsl	r3, r3, #1
 1862 00f0 CB18     		add	r3, r1, r3
 1863 00f2 9B88     		ldrh	r3, [r3, #4]
 1864 00f4 C022     		mov	r2, #192
 1865 00f6 5201     		lsl	r2, r2, #5
 1866 00f8 9342     		cmp	r3, r2
 1867 00fa 03D0     		beq	.L131
 1868 00fc 914A     		ldr	r2, .L171+16
 1869 00fe 9342     		cmp	r3, r2
 1870 0100 06D0     		beq	.L132
1733:.\Generated_Source\PSoC4/BLE_eventHandler.c ****                     {
1734:.\Generated_Source\PSoC4/BLE_eventHandler.c ****                     case CYBLE_UUID_GAP_SERVICE:
1735:.\Generated_Source\PSoC4/BLE_eventHandler.c ****                         CyBle_GapcDiscoverCharacteristicsEventHandler(&discCharInfo);
1736:.\Generated_Source\PSoC4/BLE_eventHandler.c ****                         break;
1737:.\Generated_Source\PSoC4/BLE_eventHandler.c **** 
1738:.\Generated_Source\PSoC4/BLE_eventHandler.c ****                     case CYBLE_UUID_GATT_SERVICE:
1739:.\Generated_Source\PSoC4/BLE_eventHandler.c ****                         CyBle_GattcDiscoverCharacteristicsEventHandler(&discCharInfo);
1740:.\Generated_Source\PSoC4/BLE_eventHandler.c ****                         break;
1741:.\Generated_Source\PSoC4/BLE_eventHandler.c ****                 
1742:.\Generated_Source\PSoC4/BLE_eventHandler.c ****                 #ifdef CYBLE_ANS_CLIENT
1743:.\Generated_Source\PSoC4/BLE_eventHandler.c ****                     case CYBLE_UUID_ALERT_NOTIFICATION_SERVICE:
1744:.\Generated_Source\PSoC4/BLE_eventHandler.c ****                         CyBle_AnscDiscoverCharacteristicsEventHandler(&discCharInfo);
1745:.\Generated_Source\PSoC4/BLE_eventHandler.c ****                         break;
1746:.\Generated_Source\PSoC4/BLE_eventHandler.c ****                 #endif /* CYBLE_ANS_CLIENT */
1747:.\Generated_Source\PSoC4/BLE_eventHandler.c ****                         
1748:.\Generated_Source\PSoC4/BLE_eventHandler.c ****                 #ifdef CYBLE_BAS_CLIENT
1749:.\Generated_Source\PSoC4/BLE_eventHandler.c ****                     case CYBLE_UUID_BAS_SERVICE:
1750:.\Generated_Source\PSoC4/BLE_eventHandler.c ****                         CyBle_BascDiscoverCharacteristicsEventHandler(cyBle_disCount - CYBLE_SRVI_B
1751:.\Generated_Source\PSoC4/BLE_eventHandler.c ****                         break;
1752:.\Generated_Source\PSoC4/BLE_eventHandler.c ****                 #endif /* CYBLE_BAS_CLIENT */
1753:.\Generated_Source\PSoC4/BLE_eventHandler.c **** 
1754:.\Generated_Source\PSoC4/BLE_eventHandler.c ****                 #ifdef CYBLE_BLS_CLIENT
1755:.\Generated_Source\PSoC4/BLE_eventHandler.c ****                     case CYBLE_UUID_BLOOD_PRESSURE_SERVICE:
1756:.\Generated_Source\PSoC4/BLE_eventHandler.c ****                         CyBle_BlscDiscoverCharacteristicsEventHandler(&discCharInfo);
1757:.\Generated_Source\PSoC4/BLE_eventHandler.c ****                         break;
1758:.\Generated_Source\PSoC4/BLE_eventHandler.c ****                 #endif /* CYBLE_BLS_CLIENT */
1759:.\Generated_Source\PSoC4/BLE_eventHandler.c ****                 
1760:.\Generated_Source\PSoC4/BLE_eventHandler.c ****                 #ifdef CYBLE_CGMS_CLIENT
1761:.\Generated_Source\PSoC4/BLE_eventHandler.c ****                     case CYBLE_UUID_CGM_SERVICE:
1762:.\Generated_Source\PSoC4/BLE_eventHandler.c ****                         CyBle_CgmscDiscoverCharacteristicsEventHandler(&discCharInfo);
1763:.\Generated_Source\PSoC4/BLE_eventHandler.c ****                         break;
1764:.\Generated_Source\PSoC4/BLE_eventHandler.c ****                 #endif /* CYBLE_CGMS_CLIENT */
1765:.\Generated_Source\PSoC4/BLE_eventHandler.c **** 
1766:.\Generated_Source\PSoC4/BLE_eventHandler.c ****                 #ifdef CYBLE_CPS_CLIENT
1767:.\Generated_Source\PSoC4/BLE_eventHandler.c ****                     case CYBLE_UUID_CPS_SERVICE:
1768:.\Generated_Source\PSoC4/BLE_eventHandler.c ****                         CyBle_CpscDiscoverCharacteristicsEventHandler(&discCharInfo);
1769:.\Generated_Source\PSoC4/BLE_eventHandler.c ****                         break;
1770:.\Generated_Source\PSoC4/BLE_eventHandler.c ****                 #endif /* CYBLE_CPS_CLIENT */
1771:.\Generated_Source\PSoC4/BLE_eventHandler.c **** 
1772:.\Generated_Source\PSoC4/BLE_eventHandler.c ****                 #ifdef CYBLE_CSCS_CLIENT
1773:.\Generated_Source\PSoC4/BLE_eventHandler.c ****                     case CYBLE_UUID_CYCLING_SPEED_AND_CADENCE_SERVICE:
1774:.\Generated_Source\PSoC4/BLE_eventHandler.c ****                         CyBle_CscscDiscoverCharacteristicsEventHandler(&discCharInfo);
1775:.\Generated_Source\PSoC4/BLE_eventHandler.c ****                         break;
1776:.\Generated_Source\PSoC4/BLE_eventHandler.c ****                 #endif /* CYBLE_CSCS_CLIENT */
1777:.\Generated_Source\PSoC4/BLE_eventHandler.c ****                 
1778:.\Generated_Source\PSoC4/BLE_eventHandler.c ****                 #ifdef CYBLE_CTS_CLIENT
ARM GAS  C:\Users\Evan\AppData\Local\Temp\ccmgTxtA.s 			page 67


1779:.\Generated_Source\PSoC4/BLE_eventHandler.c ****                     case CYBLE_UUID_CURRENT_TIME_SERVICE:
1780:.\Generated_Source\PSoC4/BLE_eventHandler.c ****                         CyBle_CtscDiscoverCharacteristicsEventHandler(&discCharInfo);
1781:.\Generated_Source\PSoC4/BLE_eventHandler.c ****                         break;
1782:.\Generated_Source\PSoC4/BLE_eventHandler.c ****                 #endif /* CYBLE_CTS_CLIENT */
1783:.\Generated_Source\PSoC4/BLE_eventHandler.c ****                 
1784:.\Generated_Source\PSoC4/BLE_eventHandler.c ****                 #ifdef CYBLE_DIS_CLIENT
1785:.\Generated_Source\PSoC4/BLE_eventHandler.c ****                     case CYBLE_UUID_DEVICE_INFO_SERVICE:
1786:.\Generated_Source\PSoC4/BLE_eventHandler.c ****                         CyBle_DiscDiscoverCharacteristicsEventHandler(&discCharInfo);
1787:.\Generated_Source\PSoC4/BLE_eventHandler.c ****                         break;
1788:.\Generated_Source\PSoC4/BLE_eventHandler.c ****                 #endif /* CYBLE_DIS_CLIENT */
1789:.\Generated_Source\PSoC4/BLE_eventHandler.c **** 
1790:.\Generated_Source\PSoC4/BLE_eventHandler.c ****                 #ifdef CYBLE_GLS_CLIENT
1791:.\Generated_Source\PSoC4/BLE_eventHandler.c ****                     case CYBLE_UUID_GLUCOSE_SERVICE:
1792:.\Generated_Source\PSoC4/BLE_eventHandler.c ****                         CyBle_GlscDiscoverCharacteristicsEventHandler(&discCharInfo);
1793:.\Generated_Source\PSoC4/BLE_eventHandler.c ****                         break;
1794:.\Generated_Source\PSoC4/BLE_eventHandler.c ****                 #endif /* CYBLE_GLS_CLIENT */
1795:.\Generated_Source\PSoC4/BLE_eventHandler.c ****                 
1796:.\Generated_Source\PSoC4/BLE_eventHandler.c ****                 #ifdef CYBLE_HIDS_CLIENT
1797:.\Generated_Source\PSoC4/BLE_eventHandler.c ****                     case CYBLE_UUID_HIDS_SERVICE:
1798:.\Generated_Source\PSoC4/BLE_eventHandler.c ****                         CyBle_HidscDiscoverCharacteristicsEventHandler(cyBle_disCount - CYBLE_SRVI_
1799:.\Generated_Source\PSoC4/BLE_eventHandler.c ****                         break;
1800:.\Generated_Source\PSoC4/BLE_eventHandler.c ****                 #endif /* CYBLE_HIDS_CLIENT */
1801:.\Generated_Source\PSoC4/BLE_eventHandler.c **** 
1802:.\Generated_Source\PSoC4/BLE_eventHandler.c ****                 #ifdef CYBLE_HRS_CLIENT
1803:.\Generated_Source\PSoC4/BLE_eventHandler.c ****                     case CYBLE_UUID_HEART_RATE_SERVICE:
1804:.\Generated_Source\PSoC4/BLE_eventHandler.c ****                         CyBle_HrscDiscoverCharacteristicsEventHandler(&discCharInfo);
1805:.\Generated_Source\PSoC4/BLE_eventHandler.c ****                         break;
1806:.\Generated_Source\PSoC4/BLE_eventHandler.c ****                 #endif /* CYBLE_HRS_CLIENT */
1807:.\Generated_Source\PSoC4/BLE_eventHandler.c **** 
1808:.\Generated_Source\PSoC4/BLE_eventHandler.c ****                 #ifdef CYBLE_HTS_CLIENT
1809:.\Generated_Source\PSoC4/BLE_eventHandler.c ****                     case CYBLE_UUID_HEALTH_THERMOMETER_SERVICE:
1810:.\Generated_Source\PSoC4/BLE_eventHandler.c ****                         CyBle_HtscDiscoverCharacteristicsEventHandler(&discCharInfo);
1811:.\Generated_Source\PSoC4/BLE_eventHandler.c ****                         break;
1812:.\Generated_Source\PSoC4/BLE_eventHandler.c ****                 #endif /* CYBLE_HRS_CLIENT */
1813:.\Generated_Source\PSoC4/BLE_eventHandler.c **** 
1814:.\Generated_Source\PSoC4/BLE_eventHandler.c ****                 #ifdef CYBLE_IAS_CLIENT
1815:.\Generated_Source\PSoC4/BLE_eventHandler.c ****                     case CYBLE_UUID_IMMEDIATE_ALERT_SERVICE:
1816:.\Generated_Source\PSoC4/BLE_eventHandler.c ****                         CyBle_IascDiscoverCharacteristicsEventHandler(&discCharInfo);
1817:.\Generated_Source\PSoC4/BLE_eventHandler.c ****                         break;
1818:.\Generated_Source\PSoC4/BLE_eventHandler.c ****                 #endif /* CYBLE_IAS_CLIENT */
1819:.\Generated_Source\PSoC4/BLE_eventHandler.c **** 
1820:.\Generated_Source\PSoC4/BLE_eventHandler.c ****                 #ifdef CYBLE_LLS_CLIENT
1821:.\Generated_Source\PSoC4/BLE_eventHandler.c ****                     case CYBLE_UUID_LINK_LOSS_SERVICE:
1822:.\Generated_Source\PSoC4/BLE_eventHandler.c ****                         CyBle_LlscDiscoverCharacteristicsEventHandler(&discCharInfo);
1823:.\Generated_Source\PSoC4/BLE_eventHandler.c ****                         break;
1824:.\Generated_Source\PSoC4/BLE_eventHandler.c ****                 #endif /* CYBLE_LLS_CLIENT */
1825:.\Generated_Source\PSoC4/BLE_eventHandler.c ****                 
1826:.\Generated_Source\PSoC4/BLE_eventHandler.c ****                 #ifdef CYBLE_LNS_CLIENT
1827:.\Generated_Source\PSoC4/BLE_eventHandler.c ****                     case CYBLE_UUID_LOCATION_AND_NAVIGATION_SERVICE:
1828:.\Generated_Source\PSoC4/BLE_eventHandler.c ****                         CyBle_LnscDiscoverCharacteristicsEventHandler(&discCharInfo);
1829:.\Generated_Source\PSoC4/BLE_eventHandler.c ****                         break;
1830:.\Generated_Source\PSoC4/BLE_eventHandler.c ****                 #endif /* CYBLE_LNS_CLIENT */
1831:.\Generated_Source\PSoC4/BLE_eventHandler.c ****                 
1832:.\Generated_Source\PSoC4/BLE_eventHandler.c ****                 #ifdef CYBLE_PASS_CLIENT
1833:.\Generated_Source\PSoC4/BLE_eventHandler.c ****                     case CYBLE_UUID_PHONE_ALERT_STATUS_SERVICE:
1834:.\Generated_Source\PSoC4/BLE_eventHandler.c ****                         CyBle_PasscDiscoverCharacteristicsEventHandler(&discCharInfo);
1835:.\Generated_Source\PSoC4/BLE_eventHandler.c ****                         break;
ARM GAS  C:\Users\Evan\AppData\Local\Temp\ccmgTxtA.s 			page 68


1836:.\Generated_Source\PSoC4/BLE_eventHandler.c ****                 #endif /* CYBLE_PASS_CLIENT */
1837:.\Generated_Source\PSoC4/BLE_eventHandler.c **** 
1838:.\Generated_Source\PSoC4/BLE_eventHandler.c ****                 #ifdef CYBLE_NDCS_CLIENT
1839:.\Generated_Source\PSoC4/BLE_eventHandler.c ****                     case CYBLE_UUID_NEXT_DST_CHANGE_SERVICE:
